(iEnnPlayer
EnnPlayer
p0
(dp1
S'win_times'
p2
I445
sS'enn'
p3
(iEvolutionNeuralNetwork
EvolutionNeuralNetwork
p4
(dp5
S'information'
p6
S'/******************************************************************************************\\\n|\tself-evolution neural network maximum structure: 27 -5 -5 -5 -5 -5 -5 -9\n|\tinput layer0:\t0\t1\t0\t1\t0\t0\t1\t0\t0\t1\t0\t0\t1\t0\t0\t1\t0\t0\t1\t0\t0\t1\t0\t0\t0\t0\t1\t\n|\thidden layer1:\t0.999996642184\t0.5\t0.5\t0.969832396347\t0.5\t\n|\thidden layer2:\t0\t0.977451291384\t0.5\t0.050609741667\t0.769280991069\t\n|\thidden layer3:\t0.5\t0.5\t0.5\t0.5\t0.857313192057\t\n|\thidden layer4:\t0.5\t0.000352081919304\t0.5\t0.686288424165\t0.991919006076\t\n|\thidden layer5:\t1.29803533496e-06\t0.499562816234\t0.0448899838504\t0.927448698706\t0.340383378916\t\n|\thidden layer6:\t0.5\t0.348686254203\t0.00310943503798\t0.5\t0.78974048842\t\n|\toutput layer7:\t0.999957663907\t0.875009896008\t0.885434088072\t0.99994970944\t0.949829404786\t0.00253498839619\t0.843330966443\t0.00857323635393\t0.961367075367\t\n|------------------------------------------------------------------------------------------\n|\tconnections:\t84\n|\t3 neurons connected to [1, 0]:\n|\t\t[0, 3]\ttheta: 3.318720\n|\t\t[0, 15]\ttheta: 9.285497\n|\t\t[0, 23]\ttheta: -2.691561\n|\t1 neurons connected to [1, 1]:\n|\t\t[0, 16]\ttheta: -2.570060\n|\t1 neurons connected to [1, 2]:\n|\t\t[0, 16]\ttheta: 0.197740\n|\t1 neurons connected to [1, 4]:\n|\t\t[0, 4]\ttheta: 0.591120\n|\t3 neurons connected to [2, 0]:\n|\t\t[0, 15]\ttheta: 3.442967\n|\t\t[0, 16]\ttheta: -3.758772\n|\t\t[0, 22]\ttheta: 0.949305\n|\t2 neurons connected to [2, 1]:\n|\t\t[1, 0]\ttheta: -0.830660\n|\t\t[1, 3]\ttheta: 4.743014\n|\t1 neurons connected to [2, 2]:\n|\t\t[0, 16]\ttheta: 6.670803\n|\t1 neurons connected to [2, 3]:\n|\t\t[1, 2]\ttheta: -5.863352\n|\t1 neurons connected to [2, 4]:\n|\t\t[0, 9]\ttheta: 1.204256\n|\t1 neurons connected to [3, 0]:\n|\t\t[0, 17]\ttheta: -0.347503\n|\t1 neurons connected to [3, 1]:\n|\t\t[0, 20]\ttheta: -4.242396\n|\t1 neurons connected to [3, 2]:\n|\t\t[0, 4]\ttheta: -2.733273\n|\t1 neurons connected to [3, 3]:\n|\t\t[0, 24]\ttheta: -1.375832\n|\t3 neurons connected to [3, 4]:\n|\t\t[0, 13]\ttheta: -7.331940\n|\t\t[0, 5]\ttheta: -0.468051\n|\t\t[1, 2]\ttheta: 3.586302\n|\t1 neurons connected to [4, 0]:\n|\t\t[0, 2]\ttheta: 3.730929\n|\t2 neurons connected to [4, 1]:\n|\t\t[1, 3]\ttheta: -5.955355\n|\t\t[0, 26]\ttheta: -2.175598\n|\t1 neurons connected to [4, 2]:\n|\t\t[0, 4]\ttheta: 7.324195\n|\t2 neurons connected to [5, 0]:\n|\t\t[3, 4]\ttheta: -5.263337\n|\t\t[2, 1]\ttheta: -9.250925\n|\t1 neurons connected to [5, 1]:\n|\t\t[4, 1]\ttheta: -4.966843\n|\t1 neurons connected to [5, 2]:\n|\t\t[4, 0]\ttheta: -6.115224\n|\t1 neurons connected to [5, 3]:\n|\t\t[3, 4]\ttheta: 2.972244\n|\t1 neurons connected to [5, 4]:\n|\t\t[0, 18]\ttheta: -0.661586\n|\t1 neurons connected to [6, 0]:\n|\t\t[0, 7]\ttheta: 4.408615\n|\t1 neurons connected to [6, 1]:\n|\t\t[5, 4]\ttheta: -1.835633\n|\t2 neurons connected to [6, 2]:\n|\t\t[0, 25]\ttheta: 3.322147\n|\t\t[2, 4]\ttheta: -7.500770\n|\t1 neurons connected to [6, 3]:\n|\t\t[0, 16]\ttheta: 3.849690\n|\t1 neurons connected to [6, 4]:\n|\t\t[2, 2]\ttheta: 2.646724\n|\t6 neurons connected to [7, 0]:\n|\t\t[0, 26]\ttheta: 5.995378\n|\t\t[0, 21]\ttheta: 2.483264\n|\t\t[0, 13]\ttheta: -1.042678\n|\t\t[0, 20]\ttheta: -3.838791\n|\t\t[0, 18]\ttheta: 1.591186\n|\t\t[0, 14]\ttheta: 6.778321\n|\t4 neurons connected to [7, 1]:\n|\t\t[5, 3]\ttheta: -2.567264\n|\t\t[0, 7]\ttheta: -5.323439\n|\t\t[0, 2]\ttheta: -5.817388\n|\t\t[0, 9]\ttheta: 4.327006\n|\t7 neurons connected to [7, 2]:\n|\t\t[0, 16]\ttheta: -0.491401\n|\t\t[0, 11]\ttheta: -8.298251\n|\t\t[0, 3]\ttheta: -0.334839\n|\t\t[0, 2]\ttheta: -4.791817\n|\t\t[5, 1]\ttheta: 4.763699\n|\t\t[0, 23]\ttheta: 3.382870\n|\t\t[0, 20]\ttheta: -8.063099\n|\t5 neurons connected to [7, 3]:\n|\t\t[5, 2]\ttheta: -1.264836\n|\t\t[0, 25]\ttheta: -2.580141\n|\t\t[0, 20]\ttheta: -9.751174\n|\t\t[0, 26]\ttheta: 6.853756\n|\t\t[0, 15]\ttheta: 3.100665\n|\t5 neurons connected to [7, 4]:\n|\t\t[0, 20]\ttheta: 5.187348\n|\t\t[0, 11]\ttheta: 2.659891\n|\t\t[3, 3]\ttheta: 5.881707\n|\t\t[0, 16]\ttheta: 8.758232\n|\t\t[0, 13]\ttheta: -7.987061\n|\t5 neurons connected to [7, 5]:\n|\t\t[0, 17]\ttheta: -2.628971\n|\t\t[0, 15]\ttheta: -4.258069\n|\t\t[0, 12]\ttheta: -2.550553\n|\t\t[0, 21]\ttheta: 0.833593\n|\t\t[0, 19]\ttheta: 4.247779\n|\t6 neurons connected to [7, 6]:\n|\t\t[0, 2]\ttheta: -1.802506\n|\t\t[0, 11]\ttheta: -4.199161\n|\t\t[5, 3]\ttheta: 1.109895\n|\t\t[0, 5]\ttheta: 3.523269\n|\t\t[0, 15]\ttheta: 0.240187\n|\t\t[5, 2]\ttheta: 9.215116\n|\t5 neurons connected to [7, 7]:\n|\t\t[0, 1]\ttheta: 9.986066\n|\t\t[0, 19]\ttheta: 2.681445\n|\t\t[1, 0]\ttheta: -8.284146\n|\t\t[4, 4]\ttheta: -6.505015\n|\t\t[0, 2]\ttheta: -6.350828\n|\t4 neurons connected to [7, 8]:\n|\t\t[0, 0]\ttheta: 5.114706\n|\t\t[3, 3]\ttheta: -8.118607\n|\t\t[0, 7]\ttheta: 0.099237\n|\t\t[0, 1]\ttheta: 7.273555\n\\******************************************************************************************/'
p7
sS'layer_in'
p8
(lp9
(iNeuron
Neuron
p10
(dp11
S'input_neurons'
p12
(lp13
sS'node_num'
p14
I0
sS'threshold'
p15
F0.5
sS'theta'
p16
(lp17
sS'layer_num'
p18
I0
sS'value'
p19
I0
sba(iNeuron
Neuron
p20
(dp21
g12
(lp22
sg14
I1
sg15
F0.5
sg16
(lp23
sg18
I0
sg19
I1
sba(iNeuron
Neuron
p24
(dp25
g12
(lp26
sg14
I2
sg15
F0.5
sg16
(lp27
sg18
I0
sg19
I0
sba(iNeuron
Neuron
p28
(dp29
g12
(lp30
sg14
I3
sg15
F0.5
sg16
(lp31
sg18
I0
sg19
I1
sba(iNeuron
Neuron
p32
(dp33
g12
(lp34
sg14
I4
sg15
F0.5
sg16
(lp35
sg18
I0
sg19
I0
sba(iNeuron
Neuron
p36
(dp37
g12
(lp38
sg14
I5
sg15
F0.5
sg16
(lp39
sg18
I0
sg19
I0
sba(iNeuron
Neuron
p40
(dp41
g12
(lp42
sg14
I6
sg15
F0.5
sg16
(lp43
sg18
I0
sg19
I1
sba(iNeuron
Neuron
p44
(dp45
g12
(lp46
sg14
I7
sg15
F0.5
sg16
(lp47
sg18
I0
sg19
I0
sba(iNeuron
Neuron
p48
(dp49
g12
(lp50
sg14
I8
sg15
F0.5
sg16
(lp51
sg18
I0
sg19
I0
sba(iNeuron
Neuron
p52
(dp53
g12
(lp54
sg14
I9
sg15
F0.5
sg16
(lp55
sg18
I0
sg19
I1
sba(iNeuron
Neuron
p56
(dp57
g12
(lp58
sg14
I10
sg15
F0.5
sg16
(lp59
sg18
I0
sg19
I0
sba(iNeuron
Neuron
p60
(dp61
g12
(lp62
sg14
I11
sg15
F0.5
sg16
(lp63
sg18
I0
sg19
I0
sba(iNeuron
Neuron
p64
(dp65
g12
(lp66
sg14
I12
sg15
F0.5
sg16
(lp67
sg18
I0
sg19
I1
sba(iNeuron
Neuron
p68
(dp69
g12
(lp70
sg14
I13
sg15
F0.5
sg16
(lp71
sg18
I0
sg19
I0
sba(iNeuron
Neuron
p72
(dp73
g12
(lp74
sg14
I14
sg15
F0.5
sg16
(lp75
sg18
I0
sg19
I0
sba(iNeuron
Neuron
p76
(dp77
g12
(lp78
sg14
I15
sg15
F0.5
sg16
(lp79
sg18
I0
sg19
I1
sba(iNeuron
Neuron
p80
(dp81
g12
(lp82
sg14
I16
sg15
F0.5
sg16
(lp83
sg18
I0
sg19
I0
sba(iNeuron
Neuron
p84
(dp85
g12
(lp86
sg14
I17
sg15
F0.5
sg16
(lp87
sg18
I0
sg19
I0
sba(iNeuron
Neuron
p88
(dp89
g12
(lp90
sg14
I18
sg15
F0.5
sg16
(lp91
sg18
I0
sg19
I1
sba(iNeuron
Neuron
p92
(dp93
g12
(lp94
sg14
I19
sg15
F0.5
sg16
(lp95
sg18
I0
sg19
I0
sba(iNeuron
Neuron
p96
(dp97
g12
(lp98
sg14
I20
sg15
F0.5
sg16
(lp99
sg18
I0
sg19
I0
sba(iNeuron
Neuron
p100
(dp101
g12
(lp102
sg14
I21
sg15
F0.5
sg16
(lp103
sg18
I0
sg19
I1
sba(iNeuron
Neuron
p104
(dp105
g12
(lp106
sg14
I22
sg15
F0.5
sg16
(lp107
sg18
I0
sg19
I0
sba(iNeuron
Neuron
p108
(dp109
g12
(lp110
sg14
I23
sg15
F0.5
sg16
(lp111
sg18
I0
sg19
I0
sba(iNeuron
Neuron
p112
(dp113
g12
(lp114
sg14
I24
sg15
F0.5
sg16
(lp115
sg18
I0
sg19
I0
sba(iNeuron
Neuron
p116
(dp117
g12
(lp118
sg14
I25
sg15
F0.5
sg16
(lp119
sg18
I0
sg19
I0
sba(iNeuron
Neuron
p120
(dp121
g12
(lp122
sg14
I26
sg15
F0.5
sg16
(lp123
sg18
I0
sg19
I1
sbasS'input_nodes_num'
p124
I27
sS'max_hidden_layers_num'
p125
I6
sS'layer_hid'
p126
(lp127
(lp128
(iNeuron
Neuron
p129
(dp130
g12
(lp131
g28
ag76
ag108
asg14
I0
sg15
F0.5
sg16
(lp132
F3.3187196847044405
aF9.28549675941085
aF-2.691561256625188
asg18
I1
sg19
F0.9999966421840223
sba(iNeuron
Neuron
p133
(dp134
g12
(lp135
g80
asg14
I1
sg15
F0.5
sg16
(lp136
F-2.570059948286925
asg18
I1
sg19
F0.5
sba(iNeuron
Neuron
p137
(dp138
g12
(lp139
g80
asg14
I2
sg15
F0.5
sg16
(lp140
F0.19773989071708797
asg18
I1
sg19
F0.5
sba(iNeuron
Neuron
p141
(dp142
g12
(lp143
sg14
I3
sg15
F0.5
sg16
(lp144
sg18
I1
sg19
F0.9698323963469525
sba(iNeuron
Neuron
p145
(dp146
g12
(lp147
g32
asg14
I4
sg15
F0.5
sg16
(lp148
F0.5911195954050363
asg18
I1
sg19
F0.5
sbaa(lp149
(iNeuron
Neuron
p150
(dp151
g12
(lp152
g76
ag80
ag104
asg14
I0
sg15
F0.5
sg16
(lp153
F3.442966548114706
aF-3.7587715615047124
aF0.9493053025864846
asg18
I2
sg19
F0.9690206944083636
sba(iNeuron
Neuron
p154
(dp155
g12
(lp156
g129
ag141
asg14
I1
sg15
F0.5
sg16
(lp157
F-0.830660311972478
aF4.743013539454237
asg18
I2
sg19
F0.9774512913840184
sba(iNeuron
Neuron
p158
(dp159
g12
(lp160
g80
asg14
I2
sg15
F0.5
sg16
(lp161
F6.6708032551186704
asg18
I2
sg19
F0.5
sba(iNeuron
Neuron
p162
(dp163
g12
(lp164
g137
asg14
I3
sg15
F0.5
sg16
(lp165
F-5.863351728741291
asg18
I2
sg19
F0.05060974166702842
sba(iNeuron
Neuron
p166
(dp167
g12
(lp168
g52
asg14
I4
sg15
F0.5
sg16
(lp169
F1.2042557422353966
asg18
I2
sg19
F0.7692809910691574
sbaa(lp170
(iNeuron
Neuron
p171
(dp172
g12
(lp173
g84
asg14
I0
sg15
F0.5
sg16
(lp174
F-0.3475029076763665
asg18
I3
sg19
F0.5
sba(iNeuron
Neuron
p175
(dp176
g12
(lp177
g96
asg14
I1
sg15
F0.5
sg16
(lp178
F-4.242396163917843
asg18
I3
sg19
F0.5
sba(iNeuron
Neuron
p179
(dp180
g12
(lp181
g32
asg14
I2
sg15
F0.5
sg16
(lp182
F-2.733273377423517
asg18
I3
sg19
F0.5
sba(iNeuron
Neuron
p183
(dp184
g12
(lp185
g112
asg14
I3
sg15
F0.5
sg16
(lp186
F-1.3758318528956544
asg18
I3
sg19
F0.5
sba(iNeuron
Neuron
p187
(dp188
g12
(lp189
g68
ag36
ag137
asg14
I4
sg15
F0.5
sg16
(lp190
F-7.3319398197698575
aF-0.46805091864615633
aF3.586302458712078
asg18
I3
sg19
F0.8573131920566772
sbaa(lp191
(iNeuron
Neuron
p192
(dp193
g12
(lp194
g24
asg14
I0
sg15
F0.5
sg16
(lp195
F3.7309288806427254
asg18
I4
sg19
F0.5
sba(iNeuron
Neuron
p196
(dp197
g12
(lp198
g141
ag120
asg14
I1
sg15
F0.5
sg16
(lp199
F-5.955355000470819
aF-2.1755983290275456
asg18
I4
sg19
F0.0003520819193044898
sba(iNeuron
Neuron
p200
(dp201
g12
(lp202
g32
asg14
I2
sg15
F0.5
sg16
(lp203
F7.324195291712549
asg18
I4
sg19
F0.5
sba(iNeuron
Neuron
p204
(dp205
g12
(lp206
sg14
I3
sg15
F0.5
sg16
(lp207
sg18
I4
sg19
F0.6862884241647962
sba(iNeuron
Neuron
p208
(dp209
g12
(lp210
sg14
I4
sg15
F0.5
sg16
(lp211
sg18
I4
sg19
F0.991919006075595
sbaa(lp212
(iNeuron
Neuron
p213
(dp214
g12
(lp215
g187
ag154
asg14
I0
sg15
F0.5
sg16
(lp216
F-5.26333745858357
aF-9.250925198639612
asg18
I5
sg19
F1.2980353349603973e-06
sba(iNeuron
Neuron
p217
(dp218
g12
(lp219
g196
asg14
I1
sg15
F0.5
sg16
(lp220
F-4.966842696649707
asg18
I5
sg19
F0.49956281623403176
sba(iNeuron
Neuron
p221
(dp222
g12
(lp223
g192
asg14
I2
sg15
F0.5
sg16
(lp224
F-6.1152236819368895
asg18
I5
sg19
F0.044889983850380365
sba(iNeuron
Neuron
p225
(dp226
g12
(lp227
g187
asg14
I3
sg15
F0.5
sg16
(lp228
F2.9722435039065545
asg18
I5
sg19
F0.9274486987061531
sba(iNeuron
Neuron
p229
(dp230
g12
(lp231
g88
asg14
I4
sg15
F0.5
sg16
(lp232
F-0.6615862216915716
asg18
I5
sg19
F0.34038337891560105
sbaa(lp233
(iNeuron
Neuron
p234
(dp235
g12
(lp236
g44
asg14
I0
sg15
F0.5
sg16
(lp237
F4.4086153889013
asg18
I6
sg19
F0.5
sba(iNeuron
Neuron
p238
(dp239
g12
(lp240
g229
asg14
I1
sg15
F0.5
sg16
(lp241
F-1.8356329257616633
asg18
I6
sg19
F0.3486862542026646
sba(iNeuron
Neuron
p242
(dp243
g12
(lp244
g116
ag166
asg14
I2
sg15
F0.5
sg16
(lp245
F3.32214749918127
aF-7.500770221438236
asg18
I6
sg19
F0.0031094350379824677
sba(iNeuron
Neuron
p246
(dp247
g12
(lp248
g80
asg14
I3
sg15
F0.5
sg16
(lp249
F3.8496903543481125
asg18
I6
sg19
F0.5
sba(iNeuron
Neuron
p250
(dp251
g12
(lp252
g158
asg14
I4
sg15
F0.5
sg16
(lp253
F2.6467237172292286
asg18
I6
sg19
F0.7897404884204037
sbaasS'output_nodes_num'
p254
I9
sS'layer_out'
p255
(lp256
(iNeuron
Neuron
p257
(dp258
g12
(lp259
g120
ag100
ag68
ag96
ag88
ag72
asg14
I0
sg15
F0.5
sg16
(lp260
F5.995378330834866
aF2.483263814111158
aF-1.0426775827116508
aF-3.8387908717659958
aF1.5911861031005365
aF6.778321299852493
asg18
I7
sg19
F0.9999576639074959
sba(iNeuron
Neuron
p261
(dp262
g12
(lp263
g225
ag44
ag24
ag52
asg14
I1
sg15
F0.5
sg16
(lp264
F-2.5672641550246444
aF-5.323439415944183
aF-5.817387768886075
aF4.3270064297239905
asg18
I7
sg19
F0.8750098960078566
sba(iNeuron
Neuron
p265
(dp266
g12
(lp267
g80
ag60
ag28
ag24
ag217
ag108
ag96
asg14
I2
sg15
F0.5
sg16
(lp268
F-0.4914011202293551
aF-8.298250876300726
aF-0.3348391866637783
aF-4.791817337290523
aF4.763699021799299
aF3.3828704801961766
aF-8.063098808679243
asg18
I7
sg19
F0.8854340880724025
sba(iNeuron
Neuron
p269
(dp270
g12
(lp271
g221
ag116
ag96
ag120
ag76
asg14
I3
sg15
F0.5
sg16
(lp272
F-1.2648356482860823
aF-2.580140847533256
aF-9.751173721829545
aF6.853755954509204
aF3.1006653826213544
asg18
I7
sg19
F0.9999497094402364
sba(iNeuron
Neuron
p273
(dp274
g12
(lp275
g96
ag60
ag183
ag80
ag68
asg14
I4
sg15
F0.5
sg16
(lp276
F5.18734778372953
aF2.659890579642518
aF5.881706584397005
aF8.758231995978036
aF-7.987060768298287
asg18
I7
sg19
F0.9498294047863381
sba(iNeuron
Neuron
p277
(dp278
g12
(lp279
g84
ag76
ag64
ag100
ag92
asg14
I5
sg15
F0.5
sg16
(lp280
F-2.6289705952765345
aF-4.258068900524741
aF-2.5505525558114295
aF0.833593443866592
aF4.24777852752676
asg18
I7
sg19
F0.002534988396190066
sba(iNeuron
Neuron
p281
(dp282
g12
(lp283
g24
ag60
ag225
ag36
ag76
ag221
asg14
I6
sg15
F0.5
sg16
(lp284
F-1.8025061163030927
aF-4.199160637759327
aF1.109894698199854
aF3.5232691928688595
aF0.2401871807164806
aF9.215115778212553
asg18
I7
sg19
F0.8433309664427969
sba(iNeuron
Neuron
p285
(dp286
g12
(lp287
g20
ag92
ag129
ag208
ag24
asg14
I7
sg15
F0.5
sg16
(lp288
F9.986066499748642
aF2.6814454132748224
aF-8.284145610360532
aF-6.5050154787307
aF-6.350828125209902
asg18
I7
sg19
F0.00857323635393412
sba(iNeuron
Neuron
p289
(dp290
g12
(lp291
g10
ag183
ag44
ag20
asg14
I8
sg15
F0.5
sg16
(lp292
F5.114706046659162
aF-8.118607497061292
aF0.09923685080930866
aF7.273555174200389
asg18
I7
sg19
F0.9613670753674373
sbasS'max_hidden_nodes_num'
p293
I5
sS'connection_num'
p294
I84
sbsS'play_times'
p295
I1000
sS'loss_times'
p296
I555
sS'draw_times'
p297
I0
sS'WIN_NUM'
p298
I3
sS'COL'
p299
I3
sS'ROW'
p300
I3
sb.