(iEnnPlayer
EnnPlayer
p0
(dp1
S'win_times'
p2
I96
sS'enn'
p3
(iEvolutionNeuralNetwork
EvolutionNeuralNetwork
p4
(dp5
S'information'
p6
S'/******************************************************************************************\\\n|\tself-evolution neural network maximum structure: 27 -5 -5 -5 -9\n|\tinput layer0:\t1\t0\t0\t0\t1\t0\t1\t0\t0\t1\t0\t0\t1\t0\t0\t1\t0\t0\t0\t0\t1\t0\t0\t1\t0\t1\t0\t\n|\thidden layer1:\t0.5\t0.5\t0.000228495697878\t0.5\t0.999880519493\t\n|\thidden layer2:\t0.5\t0.5\t0.00278533285978\t0.965278242873\t0.5\t\n|\thidden layer3:\t0.981738005819\t0.883476021858\t0.5\t0.387915115884\t0.5\t\n|\toutput layer4:\t0.0220756915237\t0.999999820306\t0.823097458181\t0.97789790106\t0.999854173025\t0.0645269892884\t0\t0.997623159286\t0.994246029411\t\n|------------------------------------------------------------------------------------------\n|\tconnections:\t60\n|\t1 neurons connected to [1, 0]:\n|\t\t[0, 13]\ttheta: -5.621880\n|\t1 neurons connected to [1, 1]:\n|\t\t[0, 24]\ttheta: -5.679591\n|\t1 neurons connected to [1, 2]:\n|\t\t[0, 6]\ttheta: -8.383765\n|\t2 neurons connected to [1, 3]:\n|\t\t[0, 21]\ttheta: -3.161962\n|\t\t[0, 7]\ttheta: 5.587741\n|\t1 neurons connected to [1, 4]:\n|\t\t[0, 0]\ttheta: 9.032238\n|\t2 neurons connected to [2, 0]:\n|\t\t[0, 2]\ttheta: 9.293766\n|\t\t[0, 8]\ttheta: 5.089207\n|\t1 neurons connected to [2, 1]:\n|\t\t[0, 17]\ttheta: 9.453454\n|\t3 neurons connected to [2, 2]:\n|\t\t[0, 10]\ttheta: -8.087040\n|\t\t[0, 0]\ttheta: -5.880599\n|\t\t[0, 13]\ttheta: -7.500871\n|\t1 neurons connected to [2, 3]:\n|\t\t[1, 1]\ttheta: 6.650100\n|\t1 neurons connected to [2, 4]:\n|\t\t[0, 8]\ttheta: -3.240987\n|\t2 neurons connected to [3, 0]:\n|\t\t[2, 4]\ttheta: 7.969005\n|\t\t[0, 10]\ttheta: 5.052777\n|\t1 neurons connected to [3, 1]:\n|\t\t[2, 4]\ttheta: 4.051534\n|\t1 neurons connected to [3, 2]:\n|\t\t[0, 21]\ttheta: -7.007075\n|\t2 neurons connected to [3, 3]:\n|\t\t[2, 1]\ttheta: -1.543026\n|\t\t[2, 3]\ttheta: 0.326775\n|\t1 neurons connected to [3, 4]:\n|\t\t[0, 8]\ttheta: -4.240152\n|\t6 neurons connected to [4, 0]:\n|\t\t[3, 2]\ttheta: -1.505154\n|\t\t[0, 11]\ttheta: 9.971604\n|\t\t[0, 13]\ttheta: -0.947113\n|\t\t[0, 7]\ttheta: 8.628008\n|\t\t[3, 3]\ttheta: 2.399553\n|\t\t[2, 0]\ttheta: -7.938403\n|\t5 neurons connected to [4, 1]:\n|\t\t[0, 20]\ttheta: 9.072303\n|\t\t[0, 15]\ttheta: -2.060951\n|\t\t[0, 17]\ttheta: -3.563486\n|\t\t[0, 23]\ttheta: 8.520661\n|\t\t[0, 18]\ttheta: 4.823712\n|\t4 neurons connected to [4, 2]:\n|\t\t[3, 3]\ttheta: 3.963433\n|\t\t[0, 1]\ttheta: 3.373030\n|\t\t[0, 8]\ttheta: -5.114655\n|\t\t[0, 7]\ttheta: 7.282522\n|\t4 neurons connected to [4, 3]:\n|\t\t[0, 26]\ttheta: 6.107715\n|\t\t[0, 21]\ttheta: 2.738957\n|\t\t[0, 6]\ttheta: -3.148138\n|\t\t[2, 3]\ttheta: 7.187431\n|\t3 neurons connected to [4, 4]:\n|\t\t[0, 9]\ttheta: -2.712616\n|\t\t[0, 6]\ttheta: -2.360934\n|\t\t[3, 0]\ttheta: 6.667360\n|\t6 neurons connected to [4, 6]:\n|\t\t[0, 21]\ttheta: -3.158643\n|\t\t[0, 16]\ttheta: 4.352748\n|\t\t[2, 1]\ttheta: 7.868458\n|\t\t[0, 6]\ttheta: 3.203156\n|\t\t[3, 3]\ttheta: -3.361045\n|\t\t[0, 2]\ttheta: 7.862351\n|\t6 neurons connected to [4, 7]:\n|\t\t[0, 14]\ttheta: 9.379620\n|\t\t[3, 4]\ttheta: -3.992453\n|\t\t[0, 23]\ttheta: 8.035830\n|\t\t[0, 8]\ttheta: 2.545780\n|\t\t[0, 18]\ttheta: 1.773942\n|\t\t[0, 16]\ttheta: -3.294649\n|\t5 neurons connected to [4, 8]:\n|\t\t[2, 4]\ttheta: 4.112229\n|\t\t[3, 3]\ttheta: 8.739500\n|\t\t[0, 10]\ttheta: 2.784435\n|\t\t[3, 4]\ttheta: -0.588407\n|\t\t[0, 17]\ttheta: -8.082805\n\\******************************************************************************************/'
p7
sS'layer_in'
p8
(lp9
(iNeuron
Neuron
p10
(dp11
S'input_neurons'
p12
(lp13
sS'node_num'
p14
I0
sS'threshold'
p15
F0.5
sS'theta'
p16
(lp17
sS'layer_num'
p18
I0
sS'value'
p19
I0
sba(iNeuron
Neuron
p20
(dp21
g12
(lp22
sg14
I1
sg15
F0.5
sg16
(lp23
sg18
I0
sg19
I0
sba(iNeuron
Neuron
p24
(dp25
g12
(lp26
sg14
I2
sg15
F0.5
sg16
(lp27
sg18
I0
sg19
I1
sba(iNeuron
Neuron
p28
(dp29
g12
(lp30
sg14
I3
sg15
F0.5
sg16
(lp31
sg18
I0
sg19
I0
sba(iNeuron
Neuron
p32
(dp33
g12
(lp34
sg14
I4
sg15
F0.5
sg16
(lp35
sg18
I0
sg19
I0
sba(iNeuron
Neuron
p36
(dp37
g12
(lp38
sg14
I5
sg15
F0.5
sg16
(lp39
sg18
I0
sg19
I1
sba(iNeuron
Neuron
p40
(dp41
g12
(lp42
sg14
I6
sg15
F0.5
sg16
(lp43
sg18
I0
sg19
I1
sba(iNeuron
Neuron
p44
(dp45
g12
(lp46
sg14
I7
sg15
F0.5
sg16
(lp47
sg18
I0
sg19
I0
sba(iNeuron
Neuron
p48
(dp49
g12
(lp50
sg14
I8
sg15
F0.5
sg16
(lp51
sg18
I0
sg19
I0
sba(iNeuron
Neuron
p52
(dp53
g12
(lp54
sg14
I9
sg15
F0.5
sg16
(lp55
sg18
I0
sg19
I0
sba(iNeuron
Neuron
p56
(dp57
g12
(lp58
sg14
I10
sg15
F0.5
sg16
(lp59
sg18
I0
sg19
I1
sba(iNeuron
Neuron
p60
(dp61
g12
(lp62
sg14
I11
sg15
F0.5
sg16
(lp63
sg18
I0
sg19
I0
sba(iNeuron
Neuron
p64
(dp65
g12
(lp66
sg14
I12
sg15
F0.5
sg16
(lp67
sg18
I0
sg19
I1
sba(iNeuron
Neuron
p68
(dp69
g12
(lp70
sg14
I13
sg15
F0.5
sg16
(lp71
sg18
I0
sg19
I0
sba(iNeuron
Neuron
p72
(dp73
g12
(lp74
sg14
I14
sg15
F0.5
sg16
(lp75
sg18
I0
sg19
I0
sba(iNeuron
Neuron
p76
(dp77
g12
(lp78
sg14
I15
sg15
F0.5
sg16
(lp79
sg18
I0
sg19
I0
sba(iNeuron
Neuron
p80
(dp81
g12
(lp82
sg14
I16
sg15
F0.5
sg16
(lp83
sg18
I0
sg19
I0
sba(iNeuron
Neuron
p84
(dp85
g12
(lp86
sg14
I17
sg15
F0.5
sg16
(lp87
sg18
I0
sg19
I1
sba(iNeuron
Neuron
p88
(dp89
g12
(lp90
sg14
I18
sg15
F0.5
sg16
(lp91
sg18
I0
sg19
I0
sba(iNeuron
Neuron
p92
(dp93
g12
(lp94
sg14
I19
sg15
F0.5
sg16
(lp95
sg18
I0
sg19
I1
sba(iNeuron
Neuron
p96
(dp97
g12
(lp98
sg14
I20
sg15
F0.5
sg16
(lp99
sg18
I0
sg19
I0
sba(iNeuron
Neuron
p100
(dp101
g12
(lp102
sg14
I21
sg15
F0.5
sg16
(lp103
sg18
I0
sg19
I1
sba(iNeuron
Neuron
p104
(dp105
g12
(lp106
sg14
I22
sg15
F0.5
sg16
(lp107
sg18
I0
sg19
I0
sba(iNeuron
Neuron
p108
(dp109
g12
(lp110
sg14
I23
sg15
F0.5
sg16
(lp111
sg18
I0
sg19
I0
sba(iNeuron
Neuron
p112
(dp113
g12
(lp114
sg14
I24
sg15
F0.5
sg16
(lp115
sg18
I0
sg19
I0
sba(iNeuron
Neuron
p116
(dp117
g12
(lp118
sg14
I25
sg15
F0.5
sg16
(lp119
sg18
I0
sg19
I1
sba(iNeuron
Neuron
p120
(dp121
g12
(lp122
sg14
I26
sg15
F0.5
sg16
(lp123
sg18
I0
sg19
I0
sbasS'input_nodes_num'
p124
I27
sS'max_hidden_layers_num'
p125
I3
sS'layer_hid'
p126
(lp127
(lp128
(iNeuron
Neuron
p129
(dp130
g12
(lp131
g68
asg14
I0
sg15
F0.5
sg16
(lp132
F-5.621879567371404
asg18
I1
sg19
F0.5
sba(iNeuron
Neuron
p133
(dp134
g12
(lp135
g112
asg14
I1
sg15
F0.5
sg16
(lp136
F-5.67959088196246
asg18
I1
sg19
F0.5
sba(iNeuron
Neuron
p137
(dp138
g12
(lp139
g40
asg14
I2
sg15
F0.5
sg16
(lp140
F-8.383764653665661
asg18
I1
sg19
F0.00022849569787845574
sba(iNeuron
Neuron
p141
(dp142
g12
(lp143
g100
ag44
asg14
I3
sg15
F0.5
sg16
(lp144
F-3.1619617370730406
aF5.587741473931395
asg18
I1
sg19
F0.040622531149315154
sba(iNeuron
Neuron
p145
(dp146
g12
(lp147
g10
asg14
I4
sg15
F0.5
sg16
(lp148
F9.032237832814786
asg18
I1
sg19
F0.5
sbaa(lp149
(iNeuron
Neuron
p150
(dp151
g12
(lp152
g24
ag48
asg14
I0
sg15
F0.5
sg16
(lp153
F9.293766299999938
aF5.089206555084445
asg18
I2
sg19
F0.9999080125397367
sba(iNeuron
Neuron
p154
(dp155
g12
(lp156
g84
asg14
I1
sg15
F0.5
sg16
(lp157
F9.453453687189516
asg18
I2
sg19
F0.9999215878840509
sba(iNeuron
Neuron
p158
(dp159
g12
(lp160
g56
ag10
ag68
asg14
I2
sg15
F0.5
sg16
(lp161
F-8.087040408394364
aF-5.880598674853729
aF-7.500870924437935
asg18
I2
sg19
F0.0003074039554186249
sba(iNeuron
Neuron
p162
(dp163
g12
(lp164
g133
asg14
I3
sg15
F0.5
sg16
(lp165
F6.650099794713235
asg18
I2
sg19
F0.9652782428730927
sba(iNeuron
Neuron
p166
(dp167
g12
(lp168
g48
asg14
I4
sg15
F0.5
sg16
(lp169
F-3.2409867086575623
asg18
I2
sg19
F0.5
sbaa(lp170
(iNeuron
Neuron
p171
(dp172
g12
(lp173
g166
ag56
asg14
I0
sg15
F0.5
sg16
(lp174
F7.9690047933425525
aF5.052776847489234
asg18
I3
sg19
F0.9998811202560646
sba(iNeuron
Neuron
p175
(dp176
g12
(lp177
g166
asg14
I1
sg15
F0.5
sg16
(lp178
F4.051534157304886
asg18
I3
sg19
F0.8834760218575427
sba(iNeuron
Neuron
p179
(dp180
g12
(lp181
g100
asg14
I2
sg15
F0.5
sg16
(lp182
F-7.007075250187029
asg18
I3
sg19
F0.0009046338394266124
sba(iNeuron
Neuron
p183
(dp184
g12
(lp185
g154
ag162
asg14
I3
sg15
F0.5
sg16
(lp186
F-1.5430255087150702
aF0.32677450926748364
asg18
I3
sg19
F0.22662345627342692
sba(iNeuron
Neuron
p187
(dp188
g12
(lp189
g48
asg14
I4
sg15
F0.5
sg16
(lp190
F-4.240151726315364
asg18
I3
sg19
F0.5
sbaasS'output_nodes_num'
p191
I9
sS'layer_out'
p192
(lp193
(iNeuron
Neuron
p194
(dp195
g12
(lp196
g179
ag60
ag68
ag44
ag183
ag150
asg14
I0
sg15
F0.5
sg16
(lp197
F-1.5051536165207242
aF9.97160382641362
aF-0.9471125502638582
aF8.628007628794265
aF2.3995530970111894
aF-7.938402620356495
asg18
I4
sg19
F0.0006137929112768363
sba(iNeuron
Neuron
p198
(dp199
g12
(lp200
g96
ag76
ag84
ag108
ag88
asg14
I1
sg15
F0.5
sg16
(lp201
F9.07230272659217
aF-2.06095106629276
aF-3.5634862336161355
aF8.520660933077394
aF4.8237117591096546
asg18
I4
sg19
F0.027558839488556627
sba(iNeuron
Neuron
p202
(dp203
g12
(lp204
g183
ag20
ag48
ag44
asg14
I2
sg15
F0.5
sg16
(lp205
F3.963433182092915
aF3.3730296516126543
aF-5.1146549513934225
aF7.282521629828899
asg18
I4
sg19
F0.7105808861265612
sba(iNeuron
Neuron
p206
(dp207
g12
(lp208
g120
ag100
ag40
ag162
asg14
I3
sg15
F0.5
sg16
(lp209
F6.107715090478468
aF2.7389566322265004
aF-3.148137790766061
aF7.187430704317897
asg18
I4
sg19
F0.9985412117823182
sba(iNeuron
Neuron
p210
(dp211
g12
(lp212
g52
ag40
ag171
asg14
I4
sg15
F0.5
sg16
(lp213
F-2.7126160971375235
aF-2.3609336049837975
aF6.667359531282859
asg18
I4
sg19
F0.9866872817225396
sba(iNeuron
Neuron
p214
(dp215
g12
(lp216
sg14
I5
sg15
F0.5
sg16
(lp217
sg18
I4
sg19
F0.0645269892883891
sba(iNeuron
Neuron
p218
(dp219
g12
(lp220
g100
ag80
ag154
ag40
ag183
ag24
asg14
I6
sg15
F0.5
sg16
(lp221
F-3.1586432681104952
aF4.352747806326073
aF7.8684575755952615
aF3.2031558830157145
aF-3.3610451864740014
aF7.862351033183177
asg18
I4
sg19
F0.9999996980525575
sba(iNeuron
Neuron
p222
(dp223
g12
(lp224
g72
ag187
ag108
ag48
ag88
ag80
asg14
I7
sg15
F0.5
sg16
(lp225
F9.37961971949877
aF-3.9924534374665495
aF8.035830152879115
aF2.545780130844552
aF1.7739418117545505
aF-3.294648644745357
asg18
I4
sg19
F0.11959966193785225
sba(iNeuron
Neuron
p226
(dp227
g12
(lp228
g166
ag183
ag56
ag187
ag84
asg14
I8
sg15
F0.5
sg16
(lp229
F4.112228589257402
aF8.739499506675791
aF2.7844349490571076
aF-0.5884074433347148
aF-8.082805203441147
asg18
I4
sg19
F0.1742380458385398
sbasS'max_hidden_nodes_num'
p230
I5
sS'connection_num'
p231
I60
sbsS'play_times'
p232
I1000
sS'loss_times'
p233
I904
sS'draw_times'
p234
I0
sS'WIN_NUM'
p235
I3
sS'COL'
p236
I3
sS'ROW'
p237
I3
sb.