(iEnnPlayer
EnnPlayer
p0
(dp1
S'win_times'
p2
I658
sS'enn'
p3
(iEvolutionNeuralNetwork
EvolutionNeuralNetwork
p4
(dp5
S'information'
p6
S'/******************************************************************************************\\\n|\tself-evolution neural network maximum structure: 27 -20 -20 -9\n|\tinput layer0:\t1\t0\t0\t1\t0\t0\t0\t0\t1\t1\t0\t0\t0\t1\t0\t1\t0\t0\t0\t1\t0\t0\t0\t1\t1\t0\t0\t\n|\thidden layer1:\t0.5\t0.981700160873\t0.5\t-1\t0.00415013111416\t0.418388583064\t0\t0.5\t0.998701019253\t0.999872704266\t0.5\t0.5\t0.999788198294\t0.5\t0.5\t0.5\t0.131910237442\t0.5\t0.5\t0.997388227045\t\n|\thidden layer2:\t0.994756345727\t0.5\t0.5\t0.5\t0.00773710674863\t0.5\t0.5\t0.199323500832\t0.5\t0.999202365216\t0.5\t0.5\t0.5\t0.0108170785621\t0.5\t-1\t0.012417758523\t0.5\t0.0392227208846\t0.5\t\n|\toutput layer3:\t0.00695339623303\t1.46369316401e-06\t0.999998343143\t9.65097564639e-05\t0.999968869734\t0.999881073604\t0.709712151333\t0.92542093201\t0\t\n|------------------------------------------------------------------------------------------\n|\tconnections:\t70\n|\t1 neurons connected to [1, 0]:\n|\t\t[0, 21]\ttheta: 1.104311\n|\t1 neurons connected to [1, 1]:\n|\t\t[0, 24]\ttheta: 3.982394\n|\t1 neurons connected to [1, 2]:\n|\t\t[0, 18]\ttheta: -1.726522\n|\t3 neurons connected to [1, 4]:\n|\t\t[0, 9]\ttheta: -5.480457\n|\t\t[0, 25]\ttheta: -8.275506\n|\t\t[0, 14]\ttheta: 0.391812\n|\t2 neurons connected to [1, 5]:\n|\t\t[0, 19]\ttheta: 5.202042\n|\t\t[0, 23]\ttheta: -5.531434\n|\t1 neurons connected to [1, 6]:\n|\t\t[0, 19]\ttheta: 5.302116\n|\t1 neurons connected to [1, 7]:\n|\t\t[0, 2]\ttheta: 4.343050\n|\t2 neurons connected to [1, 8]:\n|\t\t[0, 21]\ttheta: 1.749465\n|\t\t[0, 15]\ttheta: 6.644876\n|\t2 neurons connected to [1, 9]:\n|\t\t[0, 21]\ttheta: 1.094371\n|\t\t[0, 19]\ttheta: 8.968870\n|\t1 neurons connected to [1, 10]:\n|\t\t[0, 18]\ttheta: -3.977394\n|\t1 neurons connected to [1, 11]:\n|\t\t[0, 7]\ttheta: 1.880299\n|\t1 neurons connected to [1, 12]:\n|\t\t[0, 3]\ttheta: 8.459648\n|\t1 neurons connected to [1, 15]:\n|\t\t[0, 2]\ttheta: -3.433099\n|\t2 neurons connected to [1, 16]:\n|\t\t[0, 19]\ttheta: -1.884173\n|\t\t[0, 18]\ttheta: 1.386613\n|\t1 neurons connected to [1, 19]:\n|\t\t[0, 0]\ttheta: 5.945111\n|\t1 neurons connected to [2, 0]:\n|\t\t[1, 12]\ttheta: 5.246590\n|\t1 neurons connected to [2, 1]:\n|\t\t[0, 5]\ttheta: -6.160118\n|\t1 neurons connected to [2, 2]:\n|\t\t[0, 17]\ttheta: 2.994594\n|\t1 neurons connected to [2, 6]:\n|\t\t[0, 4]\ttheta: 6.731153\n|\t1 neurons connected to [2, 8]:\n|\t\t[0, 18]\ttheta: -4.055075\n|\t1 neurons connected to [2, 10]:\n|\t\t[0, 12]\ttheta: 2.090235\n|\t1 neurons connected to [2, 12]:\n|\t\t[0, 17]\ttheta: 2.516659\n|\t2 neurons connected to [2, 13]:\n|\t\t[0, 19]\ttheta: -2.366283\n|\t\t[0, 9]\ttheta: -2.149470\n|\t1 neurons connected to [2, 14]:\n|\t\t[0, 21]\ttheta: 5.299829\n|\t1 neurons connected to [2, 17]:\n|\t\t[0, 26]\ttheta: 4.451064\n|\t5 neurons connected to [3, 0]:\n|\t\t[1, 1]\ttheta: 1.391158\n|\t\t[0, 23]\ttheta: -6.327248\n|\t\t[0, 1]\ttheta: 2.365706\n|\t\t[0, 18]\ttheta: 4.687396\n|\t\t[0, 2]\ttheta: 9.325403\n|\t4 neurons connected to [3, 1]:\n|\t\t[0, 8]\ttheta: -6.515318\n|\t\t[0, 3]\ttheta: -8.940810\n|\t\t[1, 11]\ttheta: 8.817498\n|\t\t[1, 1]\ttheta: -2.431666\n|\t2 neurons connected to [3, 2]:\n|\t\t[0, 13]\ttheta: 9.728132\n|\t\t[2, 19]\ttheta: 7.164908\n|\t1 neurons connected to [3, 3]:\n|\t\t[0, 9]\ttheta: -9.245770\n|\t4 neurons connected to [3, 4]:\n|\t\t[0, 1]\ttheta: -1.150752\n|\t\t[0, 19]\ttheta: 6.066740\n|\t\t[0, 2]\ttheta: 1.234539\n|\t\t[1, 2]\ttheta: 8.621118\n|\t5 neurons connected to [3, 5]:\n|\t\t[0, 0]\ttheta: 9.036887\n|\t\t[0, 5]\ttheta: -3.358182\n|\t\t[0, 10]\ttheta: -2.334124\n|\t\t[0, 20]\ttheta: -5.434525\n|\t\t[0, 7]\ttheta: 7.792026\n|\t4 neurons connected to [3, 6]:\n|\t\t[0, 23]\ttheta: -1.604371\n|\t\t[0, 14]\ttheta: -1.952898\n|\t\t[2, 9]\ttheta: 2.500352\n|\t\t[0, 18]\ttheta: 8.180915\n|\t6 neurons connected to [3, 7]:\n|\t\t[0, 17]\ttheta: 3.076358\n|\t\t[0, 12]\ttheta: -7.840836\n|\t\t[0, 21]\ttheta: -0.511692\n|\t\t[0, 23]\ttheta: 7.387356\n|\t\t[2, 4]\ttheta: -0.908588\n|\t\t[0, 13]\ttheta: -4.861937\n|\t7 neurons connected to [3, 8]:\n|\t\t[1, 1]\ttheta: -6.833700\n|\t\t[0, 21]\ttheta: -9.828918\n|\t\t[0, 18]\ttheta: -9.067288\n|\t\t[0, 2]\ttheta: -1.943561\n|\t\t[0, 15]\ttheta: -5.025750\n|\t\t[0, 17]\ttheta: -4.174938\n|\t\t[2, 8]\ttheta: -2.815607\n\\******************************************************************************************/'
p7
sS'layer_in'
p8
(lp9
(iNeuron
Neuron
p10
(dp11
S'input_neurons'
p12
(lp13
sS'node_num'
p14
I0
sS'threshold'
p15
F0.5
sS'theta'
p16
(lp17
sS'layer_num'
p18
I0
sS'value'
p19
I0
sba(iNeuron
Neuron
p20
(dp21
g12
(lp22
sg14
I1
sg15
F0.5
sg16
(lp23
sg18
I0
sg19
I0
sba(iNeuron
Neuron
p24
(dp25
g12
(lp26
sg14
I2
sg15
F0.5
sg16
(lp27
sg18
I0
sg19
I1
sba(iNeuron
Neuron
p28
(dp29
g12
(lp30
sg14
I3
sg15
F0.5
sg16
(lp31
sg18
I0
sg19
I1
sba(iNeuron
Neuron
p32
(dp33
g12
(lp34
sg14
I4
sg15
F0.5
sg16
(lp35
sg18
I0
sg19
I0
sba(iNeuron
Neuron
p36
(dp37
g12
(lp38
sg14
I5
sg15
F0.5
sg16
(lp39
sg18
I0
sg19
I0
sba(iNeuron
Neuron
p40
(dp41
g12
(lp42
sg14
I6
sg15
F0.5
sg16
(lp43
sg18
I0
sg19
I1
sba(iNeuron
Neuron
p44
(dp45
g12
(lp46
sg14
I7
sg15
F0.5
sg16
(lp47
sg18
I0
sg19
I0
sba(iNeuron
Neuron
p48
(dp49
g12
(lp50
sg14
I8
sg15
F0.5
sg16
(lp51
sg18
I0
sg19
I0
sba(iNeuron
Neuron
p52
(dp53
g12
(lp54
sg14
I9
sg15
F0.5
sg16
(lp55
sg18
I0
sg19
I0
sba(iNeuron
Neuron
p56
(dp57
g12
(lp58
sg14
I10
sg15
F0.5
sg16
(lp59
sg18
I0
sg19
I0
sba(iNeuron
Neuron
p60
(dp61
g12
(lp62
sg14
I11
sg15
F0.5
sg16
(lp63
sg18
I0
sg19
I1
sba(iNeuron
Neuron
p64
(dp65
g12
(lp66
sg14
I12
sg15
F0.5
sg16
(lp67
sg18
I0
sg19
I0
sba(iNeuron
Neuron
p68
(dp69
g12
(lp70
sg14
I13
sg15
F0.5
sg16
(lp71
sg18
I0
sg19
I1
sba(iNeuron
Neuron
p72
(dp73
g12
(lp74
sg14
I14
sg15
F0.5
sg16
(lp75
sg18
I0
sg19
I0
sba(iNeuron
Neuron
p76
(dp77
g12
(lp78
sg14
I15
sg15
F0.5
sg16
(lp79
sg18
I0
sg19
I1
sba(iNeuron
Neuron
p80
(dp81
g12
(lp82
sg14
I16
sg15
F0.5
sg16
(lp83
sg18
I0
sg19
I0
sba(iNeuron
Neuron
p84
(dp85
g12
(lp86
sg14
I17
sg15
F0.5
sg16
(lp87
sg18
I0
sg19
I0
sba(iNeuron
Neuron
p88
(dp89
g12
(lp90
sg14
I18
sg15
F0.5
sg16
(lp91
sg18
I0
sg19
I0
sba(iNeuron
Neuron
p92
(dp93
g12
(lp94
sg14
I19
sg15
F0.5
sg16
(lp95
sg18
I0
sg19
I1
sba(iNeuron
Neuron
p96
(dp97
g12
(lp98
sg14
I20
sg15
F0.5
sg16
(lp99
sg18
I0
sg19
I0
sba(iNeuron
Neuron
p100
(dp101
g12
(lp102
sg14
I21
sg15
F0.5
sg16
(lp103
sg18
I0
sg19
I1
sba(iNeuron
Neuron
p104
(dp105
g12
(lp106
sg14
I22
sg15
F0.5
sg16
(lp107
sg18
I0
sg19
I0
sba(iNeuron
Neuron
p108
(dp109
g12
(lp110
sg14
I23
sg15
F0.5
sg16
(lp111
sg18
I0
sg19
I0
sba(iNeuron
Neuron
p112
(dp113
g12
(lp114
sg14
I24
sg15
F0.5
sg16
(lp115
sg18
I0
sg19
I1
sba(iNeuron
Neuron
p116
(dp117
g12
(lp118
sg14
I25
sg15
F0.5
sg16
(lp119
sg18
I0
sg19
I0
sba(iNeuron
Neuron
p120
(dp121
g12
(lp122
sg14
I26
sg15
F0.5
sg16
(lp123
sg18
I0
sg19
I0
sbasS'input_nodes_num'
p124
I27
sS'max_hidden_layers_num'
p125
I2
sS'layer_hid'
p126
(lp127
(lp128
(iNeuron
Neuron
p129
(dp130
g12
(lp131
g100
asg14
I0
sg15
F0.5
sg16
(lp132
F1.104311440127237
asg18
I1
sg19
F0.7510670676653018
sba(iNeuron
Neuron
p133
(dp134
g12
(lp135
g112
asg14
I1
sg15
F0.5
sg16
(lp136
F3.982393657649318
asg18
I1
sg19
F0.981700160873241
sba(iNeuron
Neuron
p137
(dp138
g12
(lp139
g88
asg14
I2
sg15
F0.5
sg16
(lp140
F-1.7265222128411963
asg18
I1
sg19
F0.5
sba(iNeuron
Neuron
p141
(dp142
g12
(lp143
sg14
I3
sg15
F0.5
sg16
(lp144
sg18
I1
sg19
I-1
sba(iNeuron
Neuron
p145
(dp146
g12
(lp147
g52
ag116
ag72
asg14
I4
sg15
F0.5
sg16
(lp148
F-5.4804565846563325
aF-8.275506155519857
aF0.39181219581129767
asg18
I1
sg19
F0.5
sba(iNeuron
Neuron
p149
(dp150
g12
(lp151
g92
ag108
asg14
I5
sg15
F0.5
sg16
(lp152
F5.2020421561646515
aF-5.5314340871668914
asg18
I1
sg19
F0.9945248322668923
sba(iNeuron
Neuron
p153
(dp154
g12
(lp155
g92
asg14
I6
sg15
F0.5
sg16
(lp156
F5.302116390514691
asg18
I1
sg19
F0.9950436468816998
sba(iNeuron
Neuron
p157
(dp158
g12
(lp159
g24
asg14
I7
sg15
F0.5
sg16
(lp160
F4.343050138379779
asg18
I1
sg19
F0.987169924682461
sba(iNeuron
Neuron
p161
(dp162
g12
(lp163
g100
ag76
asg14
I8
sg15
F0.5
sg16
(lp164
F1.7494651208308767
aF6.644875537627193
asg18
I1
sg19
F0.9997739075963223
sba(iNeuron
Neuron
p165
(dp166
g12
(lp167
g100
ag92
asg14
I9
sg15
F0.5
sg16
(lp168
F1.0943706695458655
aF8.968870261389796
asg18
I1
sg19
F0.9999573841175934
sba(iNeuron
Neuron
p169
(dp170
g12
(lp171
g88
asg14
I10
sg15
F0.5
sg16
(lp172
F-3.977393978299464
asg18
I1
sg19
F0.5
sba(iNeuron
Neuron
p173
(dp174
g12
(lp175
g44
asg14
I11
sg15
F0.5
sg16
(lp176
F1.8802994664459618
asg18
I1
sg19
F0.5
sba(iNeuron
Neuron
p177
(dp178
g12
(lp179
g28
asg14
I12
sg15
F0.5
sg16
(lp180
F8.459648243853483
asg18
I1
sg19
F0.999788198293562
sba(iNeuron
Neuron
p181
(dp182
g12
(lp183
sg14
I13
sg15
F0.5
sg16
(lp184
sg18
I1
sg19
F0.5
sba(iNeuron
Neuron
p185
(dp186
g12
(lp187
sg14
I14
sg15
F0.5
sg16
(lp188
sg18
I1
sg19
F0.5
sba(iNeuron
Neuron
p189
(dp190
g12
(lp191
g24
asg14
I15
sg15
F0.5
sg16
(lp192
F-3.433099064293752
asg18
I1
sg19
F0.03127689825297273
sba(iNeuron
Neuron
p193
(dp194
g12
(lp195
g92
ag88
asg14
I16
sg15
F0.5
sg16
(lp196
F-1.8841734505122467
aF1.3866132982841801
asg18
I1
sg19
F0.13191023744166339
sba(iNeuron
Neuron
p197
(dp198
g12
(lp199
sg14
I17
sg15
F0.5
sg16
(lp200
sg18
I1
sg19
F0.5
sba(iNeuron
Neuron
p201
(dp202
g12
(lp203
sg14
I18
sg15
F0.5
sg16
(lp204
sg18
I1
sg19
F0.5
sba(iNeuron
Neuron
p205
(dp206
g12
(lp207
g10
asg14
I19
sg15
F0.5
sg16
(lp208
F5.945110805745074
asg18
I1
sg19
F0.5
sbaa(lp209
(iNeuron
Neuron
p210
(dp211
g12
(lp212
g177
asg14
I0
sg15
F0.5
sg16
(lp213
F5.246590429757836
asg18
I2
sg19
F0.9947563457273497
sba(iNeuron
Neuron
p214
(dp215
g12
(lp216
g36
asg14
I1
sg15
F0.5
sg16
(lp217
F-6.160117907083123
asg18
I2
sg19
F0.5
sba(iNeuron
Neuron
p218
(dp219
g12
(lp220
g84
asg14
I2
sg15
F0.5
sg16
(lp221
F2.994594203782503
asg18
I2
sg19
F0.5
sba(iNeuron
Neuron
p222
(dp223
g12
(lp224
sg14
I3
sg15
F0.5
sg16
(lp225
sg18
I2
sg19
F0.5
sba(iNeuron
Neuron
p226
(dp227
g12
(lp228
sg14
I4
sg15
F0.5
sg16
(lp229
sg18
I2
sg19
F0.00773710674863003
sba(iNeuron
Neuron
p230
(dp231
g12
(lp232
sg14
I5
sg15
F0.5
sg16
(lp233
sg18
I2
sg19
F0.5
sba(iNeuron
Neuron
p234
(dp235
g12
(lp236
g32
asg14
I6
sg15
F0.5
sg16
(lp237
F6.731153134936271
asg18
I2
sg19
F0.5
sba(iNeuron
Neuron
p238
(dp239
g12
(lp240
sg14
I7
sg15
F0.5
sg16
(lp241
sg18
I2
sg19
F0.19932350083236736
sba(iNeuron
Neuron
p242
(dp243
g12
(lp244
g88
asg14
I8
sg15
F0.5
sg16
(lp245
F-4.0550748376953605
asg18
I2
sg19
F0.5
sba(iNeuron
Neuron
p246
(dp247
g12
(lp248
sg14
I9
sg15
F0.5
sg16
(lp249
sg18
I2
sg19
F0.9992023652162159
sba(iNeuron
Neuron
p250
(dp251
g12
(lp252
g64
asg14
I10
sg15
F0.5
sg16
(lp253
F2.0902347273859547
asg18
I2
sg19
F0.5
sba(iNeuron
Neuron
p254
(dp255
g12
(lp256
sg14
I11
sg15
F0.5
sg16
(lp257
sg18
I2
sg19
F0.5
sba(iNeuron
Neuron
p258
(dp259
g12
(lp260
g84
asg14
I12
sg15
F0.5
sg16
(lp261
F2.5166594867320384
asg18
I2
sg19
F0.5
sba(iNeuron
Neuron
p262
(dp263
g12
(lp264
g92
ag52
asg14
I13
sg15
F0.5
sg16
(lp265
F-2.366282616180402
aF-2.1494704208355397
asg18
I2
sg19
F0.0857802154594266
sba(iNeuron
Neuron
p266
(dp267
g12
(lp268
g100
asg14
I14
sg15
F0.5
sg16
(lp269
F5.299828764469526
asg18
I2
sg19
F0.9950323520095175
sba(iNeuron
Neuron
p270
(dp271
g12
(lp272
sg14
I15
sg15
F0.5
sg16
(lp273
sg18
I2
sg19
I-1
sba(iNeuron
Neuron
p274
(dp275
g12
(lp276
sg14
I16
sg15
F0.5
sg16
(lp277
sg18
I2
sg19
F0.01241775852303632
sba(iNeuron
Neuron
p278
(dp279
g12
(lp280
g120
asg14
I17
sg15
F0.5
sg16
(lp281
F4.451063872874263
asg18
I2
sg19
F0.5
sba(iNeuron
Neuron
p282
(dp283
g12
(lp284
sg14
I18
sg15
F0.5
sg16
(lp285
sg18
I2
sg19
F0.039222720884624813
sba(iNeuron
Neuron
p286
(dp287
g12
(lp288
sg14
I19
sg15
F0.5
sg16
(lp289
sg18
I2
sg19
F0.5
sbaasS'output_nodes_num'
p290
I9
sS'layer_out'
p291
(lp292
(iNeuron
Neuron
p293
(dp294
g12
(lp295
g133
ag108
ag20
ag88
ag24
asg14
I0
sg15
F0.5
sg16
(lp296
F1.3911584802582677
aF-6.327247892265293
aF2.3657064616071306
aF4.687395993368025
aF9.325402792111635
asg18
I3
sg19
F0.9999772541089514
sba(iNeuron
Neuron
p297
(dp298
g12
(lp299
g48
ag28
ag173
ag133
asg14
I1
sg15
F0.5
sg16
(lp300
F-6.515318441697559
aF-8.940810165244283
aF8.817497850514997
aF-2.4316656975135427
asg18
I3
sg19
F0.000987616640619684
sba(iNeuron
Neuron
p301
(dp302
g12
(lp303
g68
ag286
asg14
I2
sg15
F0.5
sg16
(lp304
F9.728132253967466
aF7.164908424380876
asg18
I3
sg19
F0.9999983431429986
sba(iNeuron
Neuron
p305
(dp306
g12
(lp307
g52
asg14
I3
sg15
F0.5
sg16
(lp308
F-9.245769937063057
asg18
I3
sg19
F0.5
sba(iNeuron
Neuron
p309
(dp310
g12
(lp311
g20
ag92
ag24
ag137
asg14
I4
sg15
F0.5
sg16
(lp312
F-1.1507520069346278
aF6.066739729568383
aF1.2345392689555155
aF8.621118349144187
asg18
I3
sg19
F0.999990941864296
sba(iNeuron
Neuron
p313
(dp314
g12
(lp315
g10
ag36
ag56
ag96
ag44
asg14
I5
sg15
F0.5
sg16
(lp316
F9.036886844631319
aF-3.358182046230997
aF-2.3341241821768772
aF-5.434524532601717
aF7.792025808025841
asg18
I3
sg19
F0.5
sba(iNeuron
Neuron
p317
(dp318
g12
(lp319
g108
ag72
ag246
ag88
asg14
I6
sg15
F0.5
sg16
(lp320
F-1.6043710610630413
aF-1.9528980373826919
aF2.50035188356426
aF8.180915347603957
asg18
I3
sg19
F0.9240265954963075
sba(iNeuron
Neuron
p321
(dp322
g12
(lp323
g84
ag64
ag100
ag108
ag226
ag68
asg14
I7
sg15
F0.5
sg16
(lp324
F3.0763579306500723
aF-7.840835636312471
aF-0.5116922533356334
aF7.387355649333109
aF-0.9085883597928088
aF-4.861936986454416
asg18
I3
sg19
F0.004583679123241213
sba(iNeuron
Neuron
p325
(dp326
g12
(lp327
g133
ag100
ag88
ag24
ag76
ag84
ag242
asg14
I8
sg15
F0.5
sg16
(lp328
F-6.833700392940168
aF-9.828917516573974
aF-9.067287994833162
aF-1.9435614503844345
aF-5.025749984561809
aF-4.1749381504322685
aF-2.815606981545349
asg18
I3
sg19
F1.5124922780942405e-11
sbasS'max_hidden_nodes_num'
p329
I20
sS'connection_num'
p330
I70
sbsS'play_times'
p331
I1000
sS'loss_times'
p332
I342
sS'draw_times'
p333
I0
sS'WIN_NUM'
p334
I3
sS'COL'
p335
I3
sS'ROW'
p336
I3
sb.