(iEnnPlayer
EnnPlayer
p0
(dp1
S'win_times'
p2
I614
sS'enn'
p3
(iEvolutionNeuralNetwork
EvolutionNeuralNetwork
p4
(dp5
S'information'
p6
S'/******************************************************************************************\\\n|\tself-evolution neural network maximum structure: 27 -10 -10 -10 -9\n|\tinput layer0:\t1\t0\t0\t0\t0\t1\t1\t0\t0\t0\t0\t1\t1\t0\t0\t1\t0\t0\t0\t1\t0\t1\t0\t0\t0\t1\t0\t\n|\thidden layer1:\t0.5\t0.057368585339\t0.5\t0.999909175069\t0.5\t0.5\t0.5\t0.000259667485204\t0\t0.5\t\n|\thidden layer2:\t0.0278903834554\t0.00139226087107\t0.964689054913\t0.628106926999\t0.269203368667\t0.5\t0.953143820982\t0.5\t0.5\t0.5\t\n|\thidden layer3:\t0.998218502906\t0.002410977363\t0.999036050613\t0.977117835768\t0.0153326896224\t0.00799363875234\t0.000545970531985\t0\t0.145102743104\t0.5\t\n|\toutput layer4:\t0.00226793643332\t0.0150836400529\t0.652738460077\t0.895376286606\t0.95920940138\t0.0634589497581\t0.885430363177\t0.977043765878\t0.968127281578\t\n|------------------------------------------------------------------------------------------\n|\tconnections:\t75\n|\t1 neurons connected to [1, 2]:\n|\t\t[0, 23]\ttheta: -5.372187\n|\t2 neurons connected to [1, 3]:\n|\t\t[0, 19]\ttheta: 9.306486\n|\t\t[0, 22]\ttheta: -0.956320\n|\t1 neurons connected to [1, 4]:\n|\t\t[0, 2]\ttheta: 5.319659\n|\t2 neurons connected to [1, 5]:\n|\t\t[0, 17]\ttheta: -3.188631\n|\t\t[0, 1]\ttheta: 3.590433\n|\t4 neurons connected to [1, 6]:\n|\t\t[0, 13]\ttheta: 2.220415\n|\t\t[0, 9]\ttheta: -5.786073\n|\t\t[0, 26]\ttheta: -9.955922\n|\t\t[0, 18]\ttheta: 5.575322\n|\t1 neurons connected to [1, 8]:\n|\t\t[0, 2]\ttheta: 0.798479\n|\t1 neurons connected to [1, 9]:\n|\t\t[0, 14]\ttheta: -3.052507\n|\t1 neurons connected to [2, 0]:\n|\t\t[0, 12]\ttheta: -3.551187\n|\t1 neurons connected to [2, 2]:\n|\t\t[1, 6]\ttheta: 6.615226\n|\t1 neurons connected to [2, 3]:\n|\t\t[0, 0]\ttheta: 0.524104\n|\t3 neurons connected to [2, 4]:\n|\t\t[1, 8]\ttheta: -7.246519\n|\t\t[1, 6]\ttheta: 5.249183\n|\t\t[0, 14]\ttheta: -9.276189\n|\t2 neurons connected to [2, 5]:\n|\t\t[0, 1]\ttheta: 6.642647\n|\t\t[0, 26]\ttheta: 9.237762\n|\t1 neurons connected to [2, 6]:\n|\t\t[1, 3]\ttheta: 3.012957\n|\t1 neurons connected to [2, 7]:\n|\t\t[0, 9]\ttheta: 3.432475\n|\t1 neurons connected to [2, 8]:\n|\t\t[0, 2]\ttheta: 2.908979\n|\t2 neurons connected to [2, 9]:\n|\t\t[0, 3]\ttheta: 4.275506\n|\t\t[0, 1]\ttheta: 4.178740\n|\t3 neurons connected to [3, 0]:\n|\t\t[0, 13]\ttheta: -6.672730\n|\t\t[0, 1]\ttheta: 5.143842\n|\t\t[0, 25]\ttheta: 6.328518\n|\t1 neurons connected to [3, 1]:\n|\t\t[0, 19]\ttheta: -6.025309\n|\t2 neurons connected to [3, 2]:\n|\t\t[1, 1]\ttheta: 3.131523\n|\t\t[0, 15]\ttheta: 6.763856\n|\t2 neurons connected to [3, 3]:\n|\t\t[2, 3]\ttheta: 5.977087\n|\t\t[0, 18]\ttheta: 2.212921\n|\t2 neurons connected to [3, 4]:\n|\t\t[1, 7]\ttheta: -3.018112\n|\t\t[2, 5]\ttheta: -8.323066\n|\t1 neurons connected to [3, 5]:\n|\t\t[1, 2]\ttheta: -9.642167\n|\t1 neurons connected to [3, 7]:\n|\t\t[0, 22]\ttheta: 8.341667\n|\t1 neurons connected to [3, 8]:\n|\t\t[1, 8]\ttheta: -3.547078\n|\t1 neurons connected to [3, 9]:\n|\t\t[0, 24]\ttheta: 5.141774\n|\t6 neurons connected to [4, 0]:\n|\t\t[0, 23]\ttheta: -4.189462\n|\t\t[0, 16]\ttheta: -9.056417\n|\t\t[0, 20]\ttheta: -9.900132\n|\t\t[1, 8]\ttheta: -2.102364\n|\t\t[2, 1]\ttheta: -2.761176\n|\t\t[0, 15]\ttheta: -5.031588\n|\t2 neurons connected to [4, 1]:\n|\t\t[1, 4]\ttheta: 0.119788\n|\t\t[0, 11]\ttheta: -4.238840\n|\t7 neurons connected to [4, 2]:\n|\t\t[1, 9]\ttheta: -2.656848\n|\t\t[3, 6]\ttheta: 7.063425\n|\t\t[0, 0]\ttheta: 4.735145\n|\t\t[0, 23]\ttheta: 0.126390\n|\t\t[3, 0]\ttheta: -2.425212\n|\t\t[1, 1]\ttheta: -6.250591\n|\t\t[0, 16]\ttheta: -7.040798\n|\t3 neurons connected to [4, 3]:\n|\t\t[0, 25]\ttheta: 8.741309\n|\t\t[0, 21]\ttheta: -6.594435\n|\t\t[0, 4]\ttheta: -5.417288\n|\t6 neurons connected to [4, 4]:\n|\t\t[0, 0]\ttheta: -2.164708\n|\t\t[1, 1]\ttheta: -7.643756\n|\t\t[0, 22]\ttheta: 9.215921\n|\t\t[0, 19]\ttheta: 5.760878\n|\t\t[0, 16]\ttheta: -8.158531\n|\t\t[0, 10]\ttheta: -4.178453\n|\t5 neurons connected to [4, 5]:\n|\t\t[1, 9]\ttheta: -6.022569\n|\t\t[0, 1]\ttheta: -2.871991\n|\t\t[0, 20]\ttheta: 4.821090\n|\t\t[1, 1]\ttheta: 5.568979\n|\t\t[0, 7]\ttheta: -4.171078\n|\t1 neurons connected to [4, 6]:\n|\t\t[1, 4]\ttheta: 4.089782\n|\t2 neurons connected to [4, 7]:\n|\t\t[0, 25]\ttheta: 2.098522\n|\t\t[1, 4]\ttheta: 3.304840\n|\t4 neurons connected to [4, 8]:\n|\t\t[2, 1]\ttheta: 1.483607\n|\t\t[0, 19]\ttheta: 2.707428\n|\t\t[0, 23]\ttheta: -9.692735\n|\t\t[2, 8]\ttheta: 1.408239\n\\******************************************************************************************/'
p7
sS'layer_in'
p8
(lp9
(iNeuron
Neuron
p10
(dp11
S'input_neurons'
p12
(lp13
sS'node_num'
p14
I0
sS'threshold'
p15
F0.5
sS'theta'
p16
(lp17
sS'layer_num'
p18
I0
sS'value'
p19
I1
sba(iNeuron
Neuron
p20
(dp21
g12
(lp22
sg14
I1
sg15
F0.5
sg16
(lp23
sg18
I0
sg19
I0
sba(iNeuron
Neuron
p24
(dp25
g12
(lp26
sg14
I2
sg15
F0.5
sg16
(lp27
sg18
I0
sg19
I0
sba(iNeuron
Neuron
p28
(dp29
g12
(lp30
sg14
I3
sg15
F0.5
sg16
(lp31
sg18
I0
sg19
I0
sba(iNeuron
Neuron
p32
(dp33
g12
(lp34
sg14
I4
sg15
F0.5
sg16
(lp35
sg18
I0
sg19
I0
sba(iNeuron
Neuron
p36
(dp37
g12
(lp38
sg14
I5
sg15
F0.5
sg16
(lp39
sg18
I0
sg19
I1
sba(iNeuron
Neuron
p40
(dp41
g12
(lp42
sg14
I6
sg15
F0.5
sg16
(lp43
sg18
I0
sg19
I0
sba(iNeuron
Neuron
p44
(dp45
g12
(lp46
sg14
I7
sg15
F0.5
sg16
(lp47
sg18
I0
sg19
I0
sba(iNeuron
Neuron
p48
(dp49
g12
(lp50
sg14
I8
sg15
F0.5
sg16
(lp51
sg18
I0
sg19
I1
sba(iNeuron
Neuron
p52
(dp53
g12
(lp54
sg14
I9
sg15
F0.5
sg16
(lp55
sg18
I0
sg19
I1
sba(iNeuron
Neuron
p56
(dp57
g12
(lp58
sg14
I10
sg15
F0.5
sg16
(lp59
sg18
I0
sg19
I0
sba(iNeuron
Neuron
p60
(dp61
g12
(lp62
sg14
I11
sg15
F0.5
sg16
(lp63
sg18
I0
sg19
I0
sba(iNeuron
Neuron
p64
(dp65
g12
(lp66
sg14
I12
sg15
F0.5
sg16
(lp67
sg18
I0
sg19
I1
sba(iNeuron
Neuron
p68
(dp69
g12
(lp70
sg14
I13
sg15
F0.5
sg16
(lp71
sg18
I0
sg19
I0
sba(iNeuron
Neuron
p72
(dp73
g12
(lp74
sg14
I14
sg15
F0.5
sg16
(lp75
sg18
I0
sg19
I0
sba(iNeuron
Neuron
p76
(dp77
g12
(lp78
sg14
I15
sg15
F0.5
sg16
(lp79
sg18
I0
sg19
I1
sba(iNeuron
Neuron
p80
(dp81
g12
(lp82
sg14
I16
sg15
F0.5
sg16
(lp83
sg18
I0
sg19
I0
sba(iNeuron
Neuron
p84
(dp85
g12
(lp86
sg14
I17
sg15
F0.5
sg16
(lp87
sg18
I0
sg19
I0
sba(iNeuron
Neuron
p88
(dp89
g12
(lp90
sg14
I18
sg15
F0.5
sg16
(lp91
sg18
I0
sg19
I0
sba(iNeuron
Neuron
p92
(dp93
g12
(lp94
sg14
I19
sg15
F0.5
sg16
(lp95
sg18
I0
sg19
I1
sba(iNeuron
Neuron
p96
(dp97
g12
(lp98
sg14
I20
sg15
F0.5
sg16
(lp99
sg18
I0
sg19
I0
sba(iNeuron
Neuron
p100
(dp101
g12
(lp102
sg14
I21
sg15
F0.5
sg16
(lp103
sg18
I0
sg19
I1
sba(iNeuron
Neuron
p104
(dp105
g12
(lp106
sg14
I22
sg15
F0.5
sg16
(lp107
sg18
I0
sg19
I0
sba(iNeuron
Neuron
p108
(dp109
g12
(lp110
sg14
I23
sg15
F0.5
sg16
(lp111
sg18
I0
sg19
I0
sba(iNeuron
Neuron
p112
(dp113
g12
(lp114
sg14
I24
sg15
F0.5
sg16
(lp115
sg18
I0
sg19
I0
sba(iNeuron
Neuron
p116
(dp117
g12
(lp118
sg14
I25
sg15
F0.5
sg16
(lp119
sg18
I0
sg19
I1
sba(iNeuron
Neuron
p120
(dp121
g12
(lp122
sg14
I26
sg15
F0.5
sg16
(lp123
sg18
I0
sg19
I0
sbasS'input_nodes_num'
p124
I27
sS'max_hidden_layers_num'
p125
I3
sS'layer_hid'
p126
(lp127
(lp128
(iNeuron
Neuron
p129
(dp130
g12
(lp131
sg14
I0
sg15
F0.5
sg16
(lp132
sg18
I1
sg19
F0.5
sba(iNeuron
Neuron
p133
(dp134
g12
(lp135
sg14
I1
sg15
F0.5
sg16
(lp136
sg18
I1
sg19
F0.05736858533904708
sba(iNeuron
Neuron
p137
(dp138
g12
(lp139
g108
asg14
I2
sg15
F0.5
sg16
(lp140
F-5.372187048937267
asg18
I1
sg19
F0.5
sba(iNeuron
Neuron
p141
(dp142
g12
(lp143
g92
ag104
asg14
I3
sg15
F0.5
sg16
(lp144
F9.306485907497361
aF-0.9563199809983338
asg18
I1
sg19
F0.999909175068727
sba(iNeuron
Neuron
p145
(dp146
g12
(lp147
g24
asg14
I4
sg15
F0.5
sg16
(lp148
F5.319659454405709
asg18
I1
sg19
F0.5
sba(iNeuron
Neuron
p149
(dp150
g12
(lp151
g84
ag20
asg14
I5
sg15
F0.5
sg16
(lp152
F-3.188631442167371
aF3.590432831893713
asg18
I1
sg19
F0.5
sba(iNeuron
Neuron
p153
(dp154
g12
(lp155
g68
ag52
ag120
ag88
asg14
I6
sg15
F0.5
sg16
(lp156
F2.2204151357028614
aF-5.786072772554278
aF-9.955921506418697
aF5.5753223323020755
asg18
I1
sg19
F0.0030606190337659207
sba(iNeuron
Neuron
p157
(dp158
g12
(lp159
sg14
I7
sg15
F0.5
sg16
(lp160
sg18
I1
sg19
F0.00025966748520366874
sba(iNeuron
Neuron
p161
(dp162
g12
(lp163
g24
asg14
I8
sg15
F0.5
sg16
(lp164
F0.7984789901177933
asg18
I1
sg19
F0.5
sba(iNeuron
Neuron
p165
(dp166
g12
(lp167
g72
asg14
I9
sg15
F0.5
sg16
(lp168
F-3.052507181269746
asg18
I1
sg19
F0.5
sbaa(lp169
(iNeuron
Neuron
p170
(dp171
g12
(lp172
g64
asg14
I0
sg15
F0.5
sg16
(lp173
F-3.5511866219313877
asg18
I2
sg19
F0.027890383455384363
sba(iNeuron
Neuron
p174
(dp175
g12
(lp176
sg14
I1
sg15
F0.5
sg16
(lp177
sg18
I2
sg19
F0.001392260871072746
sba(iNeuron
Neuron
p178
(dp179
g12
(lp180
g153
asg14
I2
sg15
F0.5
sg16
(lp181
F6.615225703066361
asg18
I2
sg19
F0.5050614985217642
sba(iNeuron
Neuron
p182
(dp183
g12
(lp184
g10
asg14
I3
sg15
F0.5
sg16
(lp185
F0.5241040431090696
asg18
I2
sg19
F0.6281069269985368
sba(iNeuron
Neuron
p186
(dp187
g12
(lp188
g161
ag153
ag72
asg14
I4
sg15
F0.5
sg16
(lp189
F-7.246518798541535
aF5.249182591304212
aF-9.276188587059732
asg18
I2
sg19
F0.026411385760616735
sba(iNeuron
Neuron
p190
(dp191
g12
(lp192
g20
ag120
asg14
I5
sg15
F0.5
sg16
(lp193
F6.64264721366596
aF9.237762232566173
asg18
I2
sg19
F0.5
sba(iNeuron
Neuron
p194
(dp195
g12
(lp196
g141
asg14
I6
sg15
F0.5
sg16
(lp197
F3.0129565683923065
asg18
I2
sg19
F0.9531438209817159
sba(iNeuron
Neuron
p198
(dp199
g12
(lp200
g52
asg14
I7
sg15
F0.5
sg16
(lp201
F3.4324748456679153
asg18
I2
sg19
F0.9687041832282587
sba(iNeuron
Neuron
p202
(dp203
g12
(lp204
g24
asg14
I8
sg15
F0.5
sg16
(lp205
F2.9089785500103265
asg18
I2
sg19
F0.5
sba(iNeuron
Neuron
p206
(dp207
g12
(lp208
g28
ag20
asg14
I9
sg15
F0.5
sg16
(lp209
F4.275506076362603
aF4.178739935843858
asg18
I2
sg19
F0.5
sbaa(lp210
(iNeuron
Neuron
p211
(dp212
g12
(lp213
g68
ag20
ag116
asg14
I0
sg15
F0.5
sg16
(lp214
F-6.672730482645144
aF5.143841545698791
aF6.328518118437955
asg18
I3
sg19
F0.9982185029062769
sba(iNeuron
Neuron
p215
(dp216
g12
(lp217
g92
asg14
I1
sg15
F0.5
sg16
(lp218
F-6.025309180430137
asg18
I3
sg19
F0.0024109773629959717
sba(iNeuron
Neuron
p219
(dp220
g12
(lp221
g133
ag76
asg14
I2
sg15
F0.5
sg16
(lp222
F3.131522698179534
aF6.76385632633081
asg18
I3
sg19
F0.9990360506129262
sba(iNeuron
Neuron
p223
(dp224
g12
(lp225
g182
ag88
asg14
I3
sg15
F0.5
sg16
(lp226
F5.977086608340532
aF2.2129208685123594
asg18
I3
sg19
F0.977117835768073
sba(iNeuron
Neuron
p227
(dp228
g12
(lp229
g157
ag190
asg14
I4
sg15
F0.5
sg16
(lp230
F-3.018111800239671
aF-8.323065993729024
asg18
I3
sg19
F0.015332689622403013
sba(iNeuron
Neuron
p231
(dp232
g12
(lp233
g137
asg14
I5
sg15
F0.5
sg16
(lp234
F-9.642166900788396
asg18
I3
sg19
F0.00799363875234005
sba(iNeuron
Neuron
p235
(dp236
g12
(lp237
sg14
I6
sg15
F0.5
sg16
(lp238
sg18
I3
sg19
F0.000545970531984503
sba(iNeuron
Neuron
p239
(dp240
g12
(lp241
g104
asg14
I7
sg15
F0.5
sg16
(lp242
F8.34166712662152
asg18
I3
sg19
F0.5
sba(iNeuron
Neuron
p243
(dp244
g12
(lp245
g161
asg14
I8
sg15
F0.5
sg16
(lp246
F-3.5470784594152027
asg18
I3
sg19
F0.1451027431043959
sba(iNeuron
Neuron
p247
(dp248
g12
(lp249
g112
asg14
I9
sg15
F0.5
sg16
(lp250
F5.1417735403994325
asg18
I3
sg19
F0.5
sbaasS'output_nodes_num'
p251
I9
sS'layer_out'
p252
(lp253
(iNeuron
Neuron
p254
(dp255
g12
(lp256
g108
ag80
ag96
ag161
ag174
ag76
asg14
I0
sg15
F0.5
sg16
(lp257
F-4.189462382030427
aF-9.056417120526412
aF-9.900132344871908
aF-2.1023642468529546
aF-2.7611758867965825
aF-5.0315880084760884
asg18
I4
sg19
F0.0022679364333245532
sba(iNeuron
Neuron
p258
(dp259
g12
(lp260
g145
ag60
asg14
I1
sg15
F0.5
sg16
(lp261
F0.11978846263194498
aF-4.238840238853916
asg18
I4
sg19
F0.5149690831902092
sba(iNeuron
Neuron
p262
(dp263
g12
(lp264
g165
ag235
ag10
ag108
ag211
ag133
ag80
asg14
I2
sg15
F0.5
sg16
(lp265
F-2.6568479171569326
aF7.063424765118096
aF4.735144820566452
aF0.12638958340835948
aF-2.4252118919345023
aF-6.250591374355827
aF-7.040798004580056
asg18
I4
sg19
F0.6527384600768187
sba(iNeuron
Neuron
p266
(dp267
g12
(lp268
g116
ag100
ag32
asg14
I3
sg15
F0.5
sg16
(lp269
F8.741309228548158
aF-6.59443539808901
aF-5.417288484500052
asg18
I4
sg19
F0.8953762866063394
sba(iNeuron
Neuron
p270
(dp271
g12
(lp272
g10
ag133
ag104
ag92
ag80
ag56
asg14
I4
sg15
F0.5
sg16
(lp273
F-2.164708389240884
aF-7.643756188415434
aF9.215921337925394
aF5.760877644512645
aF-8.158530864879054
aF-4.178452735141979
asg18
I4
sg19
F0.9592094013802425
sba(iNeuron
Neuron
p274
(dp275
g12
(lp276
g165
ag20
ag96
ag133
ag44
asg14
I5
sg15
F0.5
sg16
(lp277
F-6.022569093119912
aF-2.871990908666307
aF4.821089557713707
aF5.568978673912159
aF-4.171078007524716
asg18
I4
sg19
F0.06345894975805286
sba(iNeuron
Neuron
p278
(dp279
g12
(lp280
g145
asg14
I6
sg15
F0.5
sg16
(lp281
F4.0897819858057005
asg18
I4
sg19
F0.8854303631774961
sba(iNeuron
Neuron
p282
(dp283
g12
(lp284
g116
ag145
asg14
I7
sg15
F0.5
sg16
(lp285
F2.0985221190704557
aF3.304839578458358
asg18
I4
sg19
F0.9770437658778183
sba(iNeuron
Neuron
p286
(dp287
g12
(lp288
g174
ag92
ag108
ag202
asg14
I8
sg15
F0.5
sg16
(lp289
F1.483607492879342
aF2.7074282907054243
aF-9.692734999983035
aF1.4082385729959022
asg18
I4
sg19
F0.968127281577898
sbasS'max_hidden_nodes_num'
p290
I10
sS'connection_num'
p291
I75
sbsS'play_times'
p292
I1000
sS'loss_times'
p293
I386
sS'draw_times'
p294
I0
sS'WIN_NUM'
p295
I3
sS'COL'
p296
I3
sS'ROW'
p297
I3
sb.