(iEnnPlayer
EnnPlayer
p0
(dp1
S'win_times'
p2
I630
sS'enn'
p3
(iEvolutionNeuralNetwork
EvolutionNeuralNetwork
p4
(dp5
S'information'
p6
S'/******************************************************************************************\\\n|\tself-evolution neural network maximum structure: 27 -10 -10 -10 -9\n|\tinput layer0:\t1\t0\t0\t1\t0\t0\t1\t0\t0\t1\t0\t0\t1\t0\t0\t1\t0\t0\t0\t1\t0\t0\t0\t1\t1\t0\t0\t\n|\thidden layer1:\t0.5\t0.5\t0.5\t0.999997384401\t0.5\t0.5\t0.5\t0.5\t0.991458066525\t0.5\t\n|\thidden layer2:\t0.0278903834554\t0.0197804526443\t0.0577888614557\t0.00200215806109\t0.000757583051839\t0.5\t0.5\t0.0270842226518\t0.5\t0.986285687708\t\n|\thidden layer3:\t0.5\t0.5\t0.49760575097\t0.50299173233\t0.0153445261886\t0.997759073401\t0.000851211986544\t0.5\t0.0288385539605\t0.5\t\n|\toutput layer4:\t0.0179539571084\t0.0323078312792\t0.310286823972\t0.5\t0.443811130698\t0.384100143378\t0.885430363177\t0.83921782372\t0.00192319763302\t\n|------------------------------------------------------------------------------------------\n|\tconnections:\t75\n|\t1 neurons connected to [1, 0]:\n|\t\t[0, 21]\ttheta: 0.155886\n|\t1 neurons connected to [1, 1]:\n|\t\t[0, 21]\ttheta: -0.623679\n|\t1 neurons connected to [1, 2]:\n|\t\t[0, 10]\ttheta: 1.337615\n|\t5 neurons connected to [1, 3]:\n|\t\t[0, 19]\ttheta: 9.306486\n|\t\t[0, 22]\ttheta: -0.956320\n|\t\t[0, 12]\ttheta: 3.547529\n|\t\t[0, 13]\ttheta: -8.686870\n|\t\t[0, 10]\ttheta: 5.046692\n|\t1 neurons connected to [1, 4]:\n|\t\t[0, 2]\ttheta: 5.319659\n|\t3 neurons connected to [1, 5]:\n|\t\t[0, 1]\ttheta: 3.590433\n|\t\t[0, 8]\ttheta: 6.465956\n|\t\t[0, 25]\ttheta: -0.998264\n|\t3 neurons connected to [1, 6]:\n|\t\t[0, 13]\ttheta: 2.220415\n|\t\t[0, 26]\ttheta: -9.955922\n|\t\t[0, 18]\ttheta: 5.575322\n|\t2 neurons connected to [1, 8]:\n|\t\t[0, 15]\ttheta: 4.754189\n|\t\t[0, 13]\ttheta: 3.795250\n|\t1 neurons connected to [1, 9]:\n|\t\t[0, 2]\ttheta: 1.776613\n|\t1 neurons connected to [2, 0]:\n|\t\t[0, 12]\ttheta: -3.551187\n|\t1 neurons connected to [2, 1]:\n|\t\t[1, 2]\ttheta: -7.806165\n|\t1 neurons connected to [2, 2]:\n|\t\t[1, 0]\ttheta: -5.582867\n|\t2 neurons connected to [2, 3]:\n|\t\t[0, 0]\ttheta: -1.221454\n|\t\t[1, 9]\ttheta: -9.980142\n|\t1 neurons connected to [2, 4]:\n|\t\t[1, 8]\ttheta: -7.246519\n|\t2 neurons connected to [2, 5]:\n|\t\t[0, 1]\ttheta: 6.642647\n|\t\t[0, 26]\ttheta: 9.237762\n|\t1 neurons connected to [2, 6]:\n|\t\t[0, 25]\ttheta: 6.084568\n|\t1 neurons connected to [2, 7]:\n|\t\t[0, 3]\ttheta: -3.581346\n|\t2 neurons connected to [2, 8]:\n|\t\t[0, 2]\ttheta: 2.908979\n|\t\t[0, 7]\ttheta: -0.941123\n|\t3 neurons connected to [2, 9]:\n|\t\t[0, 3]\ttheta: 4.275506\n|\t\t[0, 1]\ttheta: 4.178740\n|\t\t[0, 22]\ttheta: -8.584294\n|\t3 neurons connected to [3, 0]:\n|\t\t[0, 13]\ttheta: -6.672730\n|\t\t[0, 25]\ttheta: 6.328518\n|\t\t[0, 4]\ttheta: -5.885834\n|\t2 neurons connected to [3, 1]:\n|\t\t[0, 22]\ttheta: 3.444513\n|\t\t[0, 11]\ttheta: 0.305313\n|\t2 neurons connected to [3, 3]:\n|\t\t[2, 3]\ttheta: 5.977087\n|\t\t[0, 18]\ttheta: 2.212921\n|\t1 neurons connected to [3, 4]:\n|\t\t[2, 5]\ttheta: -8.323066\n|\t1 neurons connected to [3, 5]:\n|\t\t[0, 0]\ttheta: 6.098622\n|\t1 neurons connected to [3, 8]:\n|\t\t[1, 8]\ttheta: -3.547078\n|\t5 neurons connected to [4, 0]:\n|\t\t[0, 23]\ttheta: -4.189462\n|\t\t[0, 16]\ttheta: -9.056417\n|\t\t[1, 8]\ttheta: -2.102364\n|\t\t[2, 1]\ttheta: -2.761176\n|\t\t[0, 9]\ttheta: 2.326658\n|\t3 neurons connected to [4, 1]:\n|\t\t[1, 4]\ttheta: 0.119788\n|\t\t[0, 8]\ttheta: -9.934895\n|\t\t[1, 5]\ttheta: -6.918997\n|\t6 neurons connected to [4, 2]:\n|\t\t[3, 6]\ttheta: 7.063425\n|\t\t[0, 0]\ttheta: 4.735145\n|\t\t[0, 23]\ttheta: 0.126390\n|\t\t[3, 0]\ttheta: -2.425212\n|\t\t[1, 1]\ttheta: -6.250591\n|\t\t[0, 16]\ttheta: -7.040798\n|\t1 neurons connected to [4, 3]:\n|\t\t[0, 21]\ttheta: -6.594435\n|\t6 neurons connected to [4, 4]:\n|\t\t[0, 0]\ttheta: -2.164708\n|\t\t[1, 1]\ttheta: -7.643756\n|\t\t[0, 22]\ttheta: 9.215921\n|\t\t[0, 19]\ttheta: 5.760878\n|\t\t[0, 16]\ttheta: -8.158531\n|\t\t[0, 10]\ttheta: -4.178453\n|\t5 neurons connected to [4, 5]:\n|\t\t[1, 9]\ttheta: -6.022569\n|\t\t[0, 1]\ttheta: -2.871991\n|\t\t[0, 20]\ttheta: 4.821090\n|\t\t[1, 1]\ttheta: 5.568979\n|\t\t[2, 2]\ttheta: -4.246248\n|\t2 neurons connected to [4, 7]:\n|\t\t[0, 25]\ttheta: 2.098522\n|\t\t[1, 4]\ttheta: 3.304840\n|\t4 neurons connected to [4, 8]:\n|\t\t[2, 1]\ttheta: 1.483607\n|\t\t[0, 19]\ttheta: 2.707428\n|\t\t[0, 23]\ttheta: -9.692735\n|\t\t[2, 8]\ttheta: 1.408239\n\\******************************************************************************************/'
p7
sS'layer_in'
p8
(lp9
(iNeuron
Neuron
p10
(dp11
S'input_neurons'
p12
(lp13
sS'node_num'
p14
I0
sS'threshold'
p15
F0.5
sS'theta'
p16
(lp17
sS'layer_num'
p18
I0
sS'value'
p19
I0
sba(iNeuron
Neuron
p20
(dp21
g12
(lp22
sg14
I1
sg15
F0.5
sg16
(lp23
sg18
I0
sg19
I0
sba(iNeuron
Neuron
p24
(dp25
g12
(lp26
sg14
I2
sg15
F0.5
sg16
(lp27
sg18
I0
sg19
I1
sba(iNeuron
Neuron
p28
(dp29
g12
(lp30
sg14
I3
sg15
F0.5
sg16
(lp31
sg18
I0
sg19
I1
sba(iNeuron
Neuron
p32
(dp33
g12
(lp34
sg14
I4
sg15
F0.5
sg16
(lp35
sg18
I0
sg19
I0
sba(iNeuron
Neuron
p36
(dp37
g12
(lp38
sg14
I5
sg15
F0.5
sg16
(lp39
sg18
I0
sg19
I0
sba(iNeuron
Neuron
p40
(dp41
g12
(lp42
sg14
I6
sg15
F0.5
sg16
(lp43
sg18
I0
sg19
I1
sba(iNeuron
Neuron
p44
(dp45
g12
(lp46
sg14
I7
sg15
F0.5
sg16
(lp47
sg18
I0
sg19
I0
sba(iNeuron
Neuron
p48
(dp49
g12
(lp50
sg14
I8
sg15
F0.5
sg16
(lp51
sg18
I0
sg19
I0
sba(iNeuron
Neuron
p52
(dp53
g12
(lp54
sg14
I9
sg15
F0.5
sg16
(lp55
sg18
I0
sg19
I1
sba(iNeuron
Neuron
p56
(dp57
g12
(lp58
sg14
I10
sg15
F0.5
sg16
(lp59
sg18
I0
sg19
I0
sba(iNeuron
Neuron
p60
(dp61
g12
(lp62
sg14
I11
sg15
F0.5
sg16
(lp63
sg18
I0
sg19
I0
sba(iNeuron
Neuron
p64
(dp65
g12
(lp66
sg14
I12
sg15
F0.5
sg16
(lp67
sg18
I0
sg19
I1
sba(iNeuron
Neuron
p68
(dp69
g12
(lp70
sg14
I13
sg15
F0.5
sg16
(lp71
sg18
I0
sg19
I0
sba(iNeuron
Neuron
p72
(dp73
g12
(lp74
sg14
I14
sg15
F0.5
sg16
(lp75
sg18
I0
sg19
I0
sba(iNeuron
Neuron
p76
(dp77
g12
(lp78
sg14
I15
sg15
F0.5
sg16
(lp79
sg18
I0
sg19
I0
sba(iNeuron
Neuron
p80
(dp81
g12
(lp82
sg14
I16
sg15
F0.5
sg16
(lp83
sg18
I0
sg19
I0
sba(iNeuron
Neuron
p84
(dp85
g12
(lp86
sg14
I17
sg15
F0.5
sg16
(lp87
sg18
I0
sg19
I1
sba(iNeuron
Neuron
p88
(dp89
g12
(lp90
sg14
I18
sg15
F0.5
sg16
(lp91
sg18
I0
sg19
I0
sba(iNeuron
Neuron
p92
(dp93
g12
(lp94
sg14
I19
sg15
F0.5
sg16
(lp95
sg18
I0
sg19
I1
sba(iNeuron
Neuron
p96
(dp97
g12
(lp98
sg14
I20
sg15
F0.5
sg16
(lp99
sg18
I0
sg19
I0
sba(iNeuron
Neuron
p100
(dp101
g12
(lp102
sg14
I21
sg15
F0.5
sg16
(lp103
sg18
I0
sg19
I1
sba(iNeuron
Neuron
p104
(dp105
g12
(lp106
sg14
I22
sg15
F0.5
sg16
(lp107
sg18
I0
sg19
I0
sba(iNeuron
Neuron
p108
(dp109
g12
(lp110
sg14
I23
sg15
F0.5
sg16
(lp111
sg18
I0
sg19
I0
sba(iNeuron
Neuron
p112
(dp113
g12
(lp114
sg14
I24
sg15
F0.5
sg16
(lp115
sg18
I0
sg19
I0
sba(iNeuron
Neuron
p116
(dp117
g12
(lp118
sg14
I25
sg15
F0.5
sg16
(lp119
sg18
I0
sg19
I1
sba(iNeuron
Neuron
p120
(dp121
g12
(lp122
sg14
I26
sg15
F0.5
sg16
(lp123
sg18
I0
sg19
I0
sbasS'input_nodes_num'
p124
I27
sS'max_hidden_layers_num'
p125
I3
sS'layer_hid'
p126
(lp127
(lp128
(iNeuron
Neuron
p129
(dp130
g12
(lp131
g100
asg14
I0
sg15
F0.5
sg16
(lp132
F0.15588628439735075
asg18
I1
sg19
F0.5388928432420819
sba(iNeuron
Neuron
p133
(dp134
g12
(lp135
g100
asg14
I1
sg15
F0.5
sg16
(lp136
F-0.6236791489150981
asg18
I1
sg19
F0.34894514959319406
sba(iNeuron
Neuron
p137
(dp138
g12
(lp139
g56
asg14
I2
sg15
F0.5
sg16
(lp140
F1.3376147311808566
asg18
I1
sg19
F0.5
sba(iNeuron
Neuron
p141
(dp142
g12
(lp143
g92
ag104
ag64
ag68
ag56
asg14
I3
sg15
F0.5
sg16
(lp144
F9.306485907497361
aF-0.9563199809983338
aF3.547529000065621
aF-8.686870069488744
aF5.0466919612282055
asg18
I1
sg19
F0.9999973844012606
sba(iNeuron
Neuron
p145
(dp146
g12
(lp147
g24
asg14
I4
sg15
F0.5
sg16
(lp148
F5.319659454405709
asg18
I1
sg19
F0.99512941845805
sba(iNeuron
Neuron
p149
(dp150
g12
(lp151
g20
ag48
ag116
asg14
I5
sg15
F0.5
sg16
(lp152
F3.590432831893713
aF6.465956053596422
aF-0.9982643837197891
asg18
I1
sg19
F0.26928280105968216
sba(iNeuron
Neuron
p153
(dp154
g12
(lp155
g68
ag120
ag88
asg14
I6
sg15
F0.5
sg16
(lp156
F2.2204151357028614
aF-9.955921506418697
aF5.5753223323020755
asg18
I1
sg19
F0.5
sba(iNeuron
Neuron
p157
(dp158
g12
(lp159
sg14
I7
sg15
F0.5
sg16
(lp160
sg18
I1
sg19
F0.5
sba(iNeuron
Neuron
p161
(dp162
g12
(lp163
g76
ag68
asg14
I8
sg15
F0.5
sg16
(lp164
F4.7541892696541215
aF3.7952502230004335
asg18
I1
sg19
F0.5
sba(iNeuron
Neuron
p165
(dp166
g12
(lp167
g24
asg14
I9
sg15
F0.5
sg16
(lp168
F1.776612826350883
asg18
I1
sg19
F0.855278114475047
sbaa(lp169
(iNeuron
Neuron
p170
(dp171
g12
(lp172
g64
asg14
I0
sg15
F0.5
sg16
(lp173
F-3.5511866219313877
asg18
I2
sg19
F0.027890383455384363
sba(iNeuron
Neuron
p174
(dp175
g12
(lp176
g137
asg14
I1
sg15
F0.5
sg16
(lp177
F-7.80616472922982
asg18
I2
sg19
F0.019780452644341237
sba(iNeuron
Neuron
p178
(dp179
g12
(lp180
g129
asg14
I2
sg15
F0.5
sg16
(lp181
F-5.582866678628495
asg18
I2
sg19
F0.04704034645200476
sba(iNeuron
Neuron
p182
(dp183
g12
(lp184
g10
ag165
asg14
I3
sg15
F0.5
sg16
(lp185
F-1.2214543773879036
aF-9.980142214329229
asg18
I2
sg19
F0.00019627506109846669
sba(iNeuron
Neuron
p186
(dp187
g12
(lp188
g161
asg14
I4
sg15
F0.5
sg16
(lp189
F-7.246518798541535
asg18
I2
sg19
F0.02600140213425139
sba(iNeuron
Neuron
p190
(dp191
g12
(lp192
g20
ag120
asg14
I5
sg15
F0.5
sg16
(lp193
F6.64264721366596
aF9.237762232566173
asg18
I2
sg19
F0.5
sba(iNeuron
Neuron
p194
(dp195
g12
(lp196
g116
asg14
I6
sg15
F0.5
sg16
(lp197
F6.084567835047313
asg18
I2
sg19
F0.997727427873052
sba(iNeuron
Neuron
p198
(dp199
g12
(lp200
g28
asg14
I7
sg15
F0.5
sg16
(lp201
F-3.58134615029567
asg18
I2
sg19
F0.027084222651841253
sba(iNeuron
Neuron
p202
(dp203
g12
(lp204
g24
ag44
asg14
I8
sg15
F0.5
sg16
(lp205
F2.9089785500103265
aF-0.9411227663745798
asg18
I2
sg19
F0.9482884981892667
sba(iNeuron
Neuron
p206
(dp207
g12
(lp208
g28
ag20
ag104
asg14
I9
sg15
F0.5
sg16
(lp209
F4.275506076362603
aF4.178739935843858
aF-8.584293751595895
asg18
I2
sg19
F0.9862856877076065
sbaa(lp210
(iNeuron
Neuron
p211
(dp212
g12
(lp213
g68
ag116
ag32
asg14
I0
sg15
F0.5
sg16
(lp214
F-6.672730482645144
aF6.328518118437955
aF-5.885833915667891
asg18
I3
sg19
F0.9982185029062769
sba(iNeuron
Neuron
p215
(dp216
g12
(lp217
g104
ag60
asg14
I1
sg15
F0.5
sg16
(lp218
F3.4445128529924585
aF0.305313057767604
asg18
I3
sg19
F0.5
sba(iNeuron
Neuron
p219
(dp220
g12
(lp221
sg14
I2
sg15
F0.5
sg16
(lp222
sg18
I3
sg19
F0.49760575096983684
sba(iNeuron
Neuron
p223
(dp224
g12
(lp225
g182
ag88
asg14
I3
sg15
F0.5
sg16
(lp226
F5.977086608340532
aF2.2129208685123594
asg18
I3
sg19
F0.5002932882261732
sba(iNeuron
Neuron
p227
(dp228
g12
(lp229
g190
asg14
I4
sg15
F0.5
sg16
(lp230
F-8.323065993729024
asg18
I3
sg19
F0.015344526188561275
sba(iNeuron
Neuron
p231
(dp232
g12
(lp233
g10
asg14
I5
sg15
F0.5
sg16
(lp234
F6.098622396936491
asg18
I3
sg19
F0.5
sba(iNeuron
Neuron
p235
(dp236
g12
(lp237
sg14
I6
sg15
F0.5
sg16
(lp238
sg18
I3
sg19
F0.0008512119865439389
sba(iNeuron
Neuron
p239
(dp240
g12
(lp241
sg14
I7
sg15
F0.5
sg16
(lp242
sg18
I3
sg19
F0.5
sba(iNeuron
Neuron
p243
(dp244
g12
(lp245
g161
asg14
I8
sg15
F0.5
sg16
(lp246
F-3.5470784594152027
asg18
I3
sg19
F0.1451027431043959
sba(iNeuron
Neuron
p247
(dp248
g12
(lp249
sg14
I9
sg15
F0.5
sg16
(lp250
sg18
I3
sg19
F0.5
sbaasS'output_nodes_num'
p251
I9
sS'layer_out'
p252
(lp253
(iNeuron
Neuron
p254
(dp255
g12
(lp256
g108
ag80
ag161
ag174
ag52
asg14
I0
sg15
F0.5
sg16
(lp257
F-4.189462382030427
aF-9.056417120526412
aF-2.1023642468529546
aF-2.7611758867965825
aF2.326658030465472
asg18
I4
sg19
F0.7722146114595153
sba(iNeuron
Neuron
p258
(dp259
g12
(lp260
g145
ag48
ag149
asg14
I1
sg15
F0.5
sg16
(lp261
F0.11978846263194498
aF-9.934894640051223
aF-6.918997210381148
asg18
I4
sg19
F0.1488103951688665
sba(iNeuron
Neuron
p262
(dp263
g12
(lp264
g235
ag10
ag108
ag211
ag133
ag80
asg14
I2
sg15
F0.5
sg16
(lp265
F7.063424765118096
aF4.735144820566452
aF0.12638958340835948
aF-2.4252118919345023
aF-6.250591374355827
aF-7.040798004580056
asg18
I4
sg19
F0.009991364911054249
sba(iNeuron
Neuron
p266
(dp267
g12
(lp268
g100
asg14
I3
sg15
F0.5
sg16
(lp269
F-6.59443539808901
asg18
I4
sg19
F0.0013660902894410327
sba(iNeuron
Neuron
p270
(dp271
g12
(lp272
g10
ag133
ag104
ag92
ag80
ag56
asg14
I4
sg15
F0.5
sg16
(lp273
F-2.164708389240884
aF-7.643756188415434
aF9.215921337925394
aF5.760877644512645
aF-8.158530864879054
aF-4.178452735141979
asg18
I4
sg19
F0.9566290566917748
sba(iNeuron
Neuron
p274
(dp275
g12
(lp276
g165
ag20
ag96
ag133
ag178
asg14
I5
sg15
F0.5
sg16
(lp277
F-6.022569093119912
aF-2.871990908666307
aF4.821089557713707
aF5.568978673912159
aF-4.246248420152636
asg18
I4
sg19
F0.03206349180068508
sba(iNeuron
Neuron
p278
(dp279
g12
(lp280
sg14
I6
sg15
F0.5
sg16
(lp281
sg18
I4
sg19
F0.8854303631774961
sba(iNeuron
Neuron
p282
(dp283
g12
(lp284
g116
ag145
asg14
I7
sg15
F0.5
sg16
(lp285
F2.0985221190704557
aF3.304839578458358
asg18
I4
sg19
F0.9954463639909072
sba(iNeuron
Neuron
p286
(dp287
g12
(lp288
g174
ag92
ag108
ag202
asg14
I8
sg15
F0.5
sg16
(lp289
F1.483607492879342
aF2.7074282907054243
aF-9.692734999983035
aF1.4082385729959022
asg18
I4
sg19
F0.9832454868902037
sbasS'max_hidden_nodes_num'
p290
I10
sS'connection_num'
p291
I75
sbsS'play_times'
p292
I1000
sS'loss_times'
p293
I370
sS'draw_times'
p294
I0
sS'WIN_NUM'
p295
I3
sS'COL'
p296
I3
sS'ROW'
p297
I3
sb.